Component: Arm Compiler for Embedded 6.23 Tool: armlink [5f102400]

==============================================================================

Image Symbol Table

    Local Symbols

    Symbol Name                              Value     Ov Type        Size  Object(Section)

    ../clib/angel/boardlib.s                 0x00000000   Number         0  boardinit1.o ABSOLUTE
    ../clib/angel/boardlib.s                 0x00000000   Number         0  boardinit2.o ABSOLUTE
    ../clib/angel/boardlib.s                 0x00000000   Number         0  boardinit3.o ABSOLUTE
    ../clib/angel/boardlib.s                 0x00000000   Number         0  boardshut.o ABSOLUTE
    ../clib/angel/dczerorl2.s                0x00000000   Number         0  __dczerorl2.o ABSOLUTE
    ../clib/angel/handlers.s                 0x00000000   Number         0  __scatter_zi.o ABSOLUTE
    ../clib/angel/kernel.s                   0x00000000   Number         0  __rtentry.o ABSOLUTE
    ../clib/angel/kernel.s                   0x00000000   Number         0  __rtentry2.o ABSOLUTE
    ../clib/angel/kernel.s                   0x00000000   Number         0  __rtentry4.o ABSOLUTE
    ../clib/angel/kernel.s                   0x00000000   Number         0  rtexit.o ABSOLUTE
    ../clib/angel/kernel.s                   0x00000000   Number         0  rtexit2.o ABSOLUTE
    ../clib/angel/rt.s                       0x00000000   Number         0  rt_ctype_table.o ABSOLUTE
    ../clib/angel/rt.s                       0x00000000   Number         0  aeabi_ldiv0.o ABSOLUTE
    ../clib/angel/rt.s                       0x00000000   Number         0  aeabi_ldiv0_sigfpe.o ABSOLUTE
    ../clib/angel/rt.s                       0x00000000   Number         0  rt_heap_descriptor.o ABSOLUTE
    ../clib/angel/rt.s                       0x00000000   Number         0  rt_heap_descriptor_intlibspace.o ABSOLUTE
    ../clib/angel/rt.s                       0x00000000   Number         0  rt_locale.o ABSOLUTE
    ../clib/angel/rt.s                       0x00000000   Number         0  rt_locale_intlibspace.o ABSOLUTE
    ../clib/angel/rt.s                       0x00000000   Number         0  rt_div0.o ABSOLUTE
    ../clib/angel/rt.s                       0x00000000   Number         0  rt_errno_addr.o ABSOLUTE
    ../clib/angel/rt.s                       0x00000000   Number         0  rt_errno_addr_intlibspace.o ABSOLUTE
    ../clib/angel/rt.s                       0x00000000   Number         0  rt_raise.o ABSOLUTE
    ../clib/angel/scatter.s                  0x00000000   Number         0  __scatter.o ABSOLUTE
    ../clib/angel/startup.s                  0x00000000   Number         0  __main.o ABSOLUTE
    ../clib/angel/sys.s                      0x00000000   Number         0  mutex_dummy.o ABSOLUTE
    ../clib/angel/sys.s                      0x00000000   Number         0  libspace.o ABSOLUTE
    ../clib/angel/sys.s                      0x00000000   Number         0  use_no_semi.o ABSOLUTE
    ../clib/angel/sys.s                      0x00000000   Number         0  indicate_semi.o ABSOLUTE
    ../clib/angel/sys.s                      0x00000000   Number         0  sys_stackheap_outer.o ABSOLUTE
    ../clib/angel/sysapp.c                   0x00000000   Number         0  sys_command.o ABSOLUTE
    ../clib/angel/sysapp.c                   0x00000000   Number         0  sys_command_hlt.o ABSOLUTE
    ../clib/angel/sysapp.c                   0x00000000   Number         0  sys_exit.o ABSOLUTE
    ../clib/angel/sysapp.c                   0x00000000   Number         0  sys_exit_hlt.o ABSOLUTE
    ../clib/angel/sysapp.c                   0x00000000   Number         0  sys_wrch.o ABSOLUTE
    ../clib/angel/sysapp.c                   0x00000000   Number         0  sys_wrch_hlt.o ABSOLUTE
    ../clib/armsys.c                         0x00000000   Number         0  _get_argv.o ABSOLUTE
    ../clib/armsys.c                         0x00000000   Number         0  argv_veneer.o ABSOLUTE
    ../clib/armsys.c                         0x00000000   Number         0  argv_veneer.o ABSOLUTE
    ../clib/armsys.c                         0x00000000   Number         0  _get_argv_nomalloc.o ABSOLUTE
    ../clib/armsys.c                         0x00000000   Number         0  no_argv.o ABSOLUTE
    ../clib/bigflt.c                         0x00000000   Number         0  bigflt0.o ABSOLUTE
    ../clib/btod.s                           0x00000000   Number         0  btod.o ABSOLUTE
    ../clib/btod_accurate.c                  0x00000000   Number         0  btod_accurate.o ABSOLUTE
    ../clib/btod_accurate.c                  0x00000000   Number         0  btod_accurate_common.o ABSOLUTE
    ../clib/ctype.c                          0x00000000   Number         0  toupper.o ABSOLUTE
    ../clib/fenv.c                           0x00000000   Number         0  _rserrno.o ABSOLUTE
    ../clib/heap1.c                          0x00000000   Number         0  h1_alloc.o ABSOLUTE
    ../clib/heap1.c                          0x00000000   Number         0  h1_alloc_threads.o ABSOLUTE
    ../clib/heap1.c                          0x00000000   Number         0  h1_init.o ABSOLUTE
    ../clib/heap1.c                          0x00000000   Number         0  h1_free.o ABSOLUTE
    ../clib/heap1.c                          0x00000000   Number         0  h1_init_threads.o ABSOLUTE
    ../clib/heap1.c                          0x00000000   Number         0  h1_free_threads.o ABSOLUTE
    ../clib/heap1.c                          0x00000000   Number         0  h1_extend.o ABSOLUTE
    ../clib/heap1.c                          0x00000000   Number         0  h1_extend_threads.o ABSOLUTE
    ../clib/heap1.c                          0x00000000   Number         0  h1_final.o ABSOLUTE
    ../clib/heap1.c                          0x00000000   Number         0  h1_final_threads.o ABSOLUTE
    ../clib/heap2.c                          0x00000000   Number         0  heap2.o ABSOLUTE
    ../clib/heap2.c                          0x00000000   Number         0  heap2_threads.o ABSOLUTE
    ../clib/heap2.c                          0x00000000   Number         0  fdtree.o ABSOLUTE
    ../clib/heapalloc.c                      0x00000000   Number         0  malloc.o ABSOLUTE
    ../clib/heapalloc.c                      0x00000000   Number         0  hguard.o ABSOLUTE
    ../clib/heapalloc.c                      0x00000000   Number         0  init_alloc.o ABSOLUTE
    ../clib/heapalloc.c                      0x00000000   Number         0  free.o ABSOLUTE
    ../clib/heapalloc.c                      0x00000000   Number         0  heapstubs.o ABSOLUTE
    ../clib/heapalloc.c                      0x00000000   Number         0  hrguard.o ABSOLUTE
    ../clib/heapalloc.c                      0x00000000   Number         0  term_alloc.o ABSOLUTE
    ../clib/heapaux.c                        0x00000000   Number         0  heapauxi.o ABSOLUTE
    ../clib/heapaux.c                        0x00000000   Number         0  heapauxa.o ABSOLUTE
    ../clib/libinit.s                        0x00000000   Number         0  libinit2.o ABSOLUTE
    ../clib/libinit.s                        0x00000000   Number         0  libinit.o ABSOLUTE
    ../clib/libinit.s                        0x00000000   Number         0  libshutdown2.o ABSOLUTE
    ../clib/libinit.s                        0x00000000   Number         0  libshutdown.o ABSOLUTE
    ../clib/locale.c                         0x00000000   Number         0  _c16rtomb.o ABSOLUTE
    ../clib/locale.s                         0x00000000   Number         0  lc_ctype_c.o ABSOLUTE
    ../clib/locale.s                         0x00000000   Number         0  lc_numeric_c.o ABSOLUTE
    ../clib/longlong.s                       0x00000000   Number         0  lludivv7m.o ABSOLUTE
    ../clib/longlong.s                       0x00000000   Number         0  lludiv10.o ABSOLUTE
    ../clib/longlong.s                       0x00000000   Number         0  llushr.o ABSOLUTE
    ../clib/maybe.s                          0x00000000   Number         0  maybetermalloc1.o ABSOLUTE
    ../clib/maybe.s                          0x00000000   Number         0  maybetermalloc2.o ABSOLUTE
    ../clib/memcpset.s                       0x00000000   Number         0  rt_memcpy_v6.o ABSOLUTE
    ../clib/memcpset.s                       0x00000000   Number         0  rt_memcpy_w.o ABSOLUTE
    ../clib/memcpset.s                       0x00000000   Number         0  rt_memmove_w.o ABSOLUTE
    ../clib/memcpset.s                       0x00000000   Number         0  aeabi_memset.o ABSOLUTE
    ../clib/memcpset.s                       0x00000000   Number         0  aeabi_memset4.o ABSOLUTE
    ../clib/memcpset.s                       0x00000000   Number         0  rt_memclr.o ABSOLUTE
    ../clib/memcpset.s                       0x00000000   Number         0  rt_memclr_w.o ABSOLUTE
    ../clib/memcpset.s                       0x00000000   Number         0  strcmpv7m_pel.o ABSOLUTE
    ../clib/misc.s                           0x00000000   Number         0  printf_stubs.o ABSOLUTE
    ../clib/printf.c                         0x00000000   Number         0  vsnprintf.o ABSOLUTE
    ../clib/printf.c                         0x00000000   Number         0  __printf.o ABSOLUTE
    ../clib/printf.c                         0x00000000   Number         0  _printf_pad.o ABSOLUTE
    ../clib/printf.c                         0x00000000   Number         0  _printf_truncate.o ABSOLUTE
    ../clib/printf.c                         0x00000000   Number         0  _printf_str.o ABSOLUTE
    ../clib/printf.c                         0x00000000   Number         0  _printf_dec.o ABSOLUTE
    ../clib/printf.c                         0x00000000   Number         0  _printf_charcount.o ABSOLUTE
    ../clib/printf.c                         0x00000000   Number         0  _printf_char_common.o ABSOLUTE
    ../clib/printf.c                         0x00000000   Number         0  _snputc.o ABSOLUTE
    ../clib/printf.c                         0x00000000   Number         0  _printf_wctomb.o ABSOLUTE
    ../clib/printf.c                         0x00000000   Number         0  _printf_longlong_dec.o ABSOLUTE
    ../clib/printf.c                         0x00000000   Number         0  _printf_oct_ll.o ABSOLUTE
    ../clib/printf.c                         0x00000000   Number         0  _printf_oct_int.o ABSOLUTE
    ../clib/printf.c                         0x00000000   Number         0  _printf_oct_int_ll.o ABSOLUTE
    ../clib/printf.c                         0x00000000   Number         0  _printf_hex_ll.o ABSOLUTE
    ../clib/printf.c                         0x00000000   Number         0  _printf_hex_int.o ABSOLUTE
    ../clib/printf.c                         0x00000000   Number         0  _printf_hex_int_ll.o ABSOLUTE
    ../clib/printf.c                         0x00000000   Number         0  _printf_hex_ptr.o ABSOLUTE
    ../clib/printf.c                         0x00000000   Number         0  _printf_hex_int_ptr.o ABSOLUTE
    ../clib/printf.c                         0x00000000   Number         0  _printf_hex_ll_ptr.o ABSOLUTE
    ../clib/printf.c                         0x00000000   Number         0  _printf_hex_int_ll_ptr.o ABSOLUTE
    ../clib/printf.c                         0x00000000   Number         0  __printf_flags.o ABSOLUTE
    ../clib/printf.c                         0x00000000   Number         0  __printf_ss.o ABSOLUTE
    ../clib/printf.c                         0x00000000   Number         0  __printf_flags_ss.o ABSOLUTE
    ../clib/printf.c                         0x00000000   Number         0  __printf_wp.o ABSOLUTE
    ../clib/printf.c                         0x00000000   Number         0  __printf_flags_wp.o ABSOLUTE
    ../clib/printf.c                         0x00000000   Number         0  __printf_ss_wp.o ABSOLUTE
    ../clib/printf.c                         0x00000000   Number         0  __printf_flags_ss_wp.o ABSOLUTE
    ../clib/printf.c                         0x00000000   Number         0  _printf_intcommon.o ABSOLUTE
    ../clib/printf.c                         0x00000000   Number         0  _printf_fp_dec.o ABSOLUTE
    ../clib/printf.c                         0x00000000   Number         0  _printf_fp_dec_accurate.o ABSOLUTE
    ../clib/printf.c                         0x00000000   Number         0  _printf_fp_hex.o ABSOLUTE
    ../clib/printf.c                         0x00000000   Number         0  __printf_nopercent.o ABSOLUTE
    ../clib/printf.c                         0x00000000   Number         0  _printf_char.o ABSOLUTE
    ../clib/printf.c                         0x00000000   Number         0  _printf_wchar.o ABSOLUTE
    ../clib/printf.c                         0x00000000   Number         0  _printf_fp_infnan.o ABSOLUTE
    ../clib/printf_percent.s                 0x00000000   Number         0  _printf_c.o ABSOLUTE
    ../clib/printf_percent.s                 0x00000000   Number         0  _printf_s.o ABSOLUTE
    ../clib/printf_percent.s                 0x00000000   Number         0  _printf_n.o ABSOLUTE
    ../clib/printf_percent.s                 0x00000000   Number         0  _printf_x.o ABSOLUTE
    ../clib/printf_percent.s                 0x00000000   Number         0  _printf_p.o ABSOLUTE
    ../clib/printf_percent.s                 0x00000000   Number         0  _printf_o.o ABSOLUTE
    ../clib/printf_percent.s                 0x00000000   Number         0  _printf_i.o ABSOLUTE
    ../clib/printf_percent.s                 0x00000000   Number         0  _printf_d.o ABSOLUTE
    ../clib/printf_percent.s                 0x00000000   Number         0  _printf_u.o ABSOLUTE
    ../clib/printf_percent.s                 0x00000000   Number         0  _printf_f.o ABSOLUTE
    ../clib/printf_percent.s                 0x00000000   Number         0  _printf_e.o ABSOLUTE
    ../clib/printf_percent.s                 0x00000000   Number         0  _printf_g.o ABSOLUTE
    ../clib/printf_percent.s                 0x00000000   Number         0  _printf_a.o ABSOLUTE
    ../clib/printf_percent.s                 0x00000000   Number         0  _printf_percent.o ABSOLUTE
    ../clib/printf_percent.s                 0x00000000   Number         0  _printf_lli.o ABSOLUTE
    ../clib/printf_percent.s                 0x00000000   Number         0  _printf_lld.o ABSOLUTE
    ../clib/printf_percent.s                 0x00000000   Number         0  _printf_llu.o ABSOLUTE
    ../clib/printf_percent.s                 0x00000000   Number         0  _printf_ll.o ABSOLUTE
    ../clib/printf_percent.s                 0x00000000   Number         0  _printf_l.o ABSOLUTE
    ../clib/printf_percent.s                 0x00000000   Number         0  _printf_lc.o ABSOLUTE
    ../clib/printf_percent.s                 0x00000000   Number         0  _printf_ls.o ABSOLUTE
    ../clib/printf_percent.s                 0x00000000   Number         0  _printf_llo.o ABSOLUTE
    ../clib/printf_percent.s                 0x00000000   Number         0  _printf_llx.o ABSOLUTE
    ../clib/printf_percent.s                 0x00000000   Number         0  _printf_percent_end.o ABSOLUTE
    ../clib/signal.c                         0x00000000   Number         0  defsig_rtmem_outer.o ABSOLUTE
    ../clib/signal.c                         0x00000000   Number         0  defsig_rtmem_formal.o ABSOLUTE
    ../clib/signal.c                         0x00000000   Number         0  defsig_exit.o ABSOLUTE
    ../clib/signal.c                         0x00000000   Number         0  defsig_fpe_outer.o ABSOLUTE
    ../clib/signal.c                         0x00000000   Number         0  defsig_fpe_formal.o ABSOLUTE
    ../clib/signal.c                         0x00000000   Number         0  defsig_rtmem_inner.o ABSOLUTE
    ../clib/signal.c                         0x00000000   Number         0  __raise.o ABSOLUTE
    ../clib/signal.c                         0x00000000   Number         0  defsig_general.o ABSOLUTE
    ../clib/signal.c                         0x00000000   Number         0  defsig_fpe_inner.o ABSOLUTE
    ../clib/signal.c                         0x00000000   Number         0  defsig_abrt_inner.o ABSOLUTE
    ../clib/signal.c                         0x00000000   Number         0  defsig_rtred_inner.o ABSOLUTE
    ../clib/signal.c                         0x00000000   Number         0  defsig_stak_inner.o ABSOLUTE
    ../clib/signal.c                         0x00000000   Number         0  defsig_pvfn_inner.o ABSOLUTE
    ../clib/signal.c                         0x00000000   Number         0  defsig_cppl_inner.o ABSOLUTE
    ../clib/signal.c                         0x00000000   Number         0  defsig_segv_inner.o ABSOLUTE
    ../clib/signal.c                         0x00000000   Number         0  defsig_other.o ABSOLUTE
    ../clib/signal.s                         0x00000000   Number         0  defsig.o ABSOLUTE
    ../clib/stdlib.c                         0x00000000   Number         0  exit.o ABSOLUTE
    ../clib/string.c                         0x00000000   Number         0  strnlen.o ABSOLUTE
    ../clib/string.c                         0x00000000   Number         0  strcpy.o ABSOLUTE
    ../clib/string.c                         0x00000000   Number         0  memchr.o ABSOLUTE
    ../fplib/fpinit.s                        0x00000000   Number         0  fpinit.o ABSOLUTE
    ../fplib/istatus.s                       0x00000000   Number         0  istatus.o ABSOLUTE
    ../fplib/printf1.s                       0x00000000   Number         0  printf1.o ABSOLUTE
    ../fplib/printf2.s                       0x00000000   Number         0  printf2.o ABSOLUTE
    ../fplib/printf2a.s                      0x00000000   Number         0  printf2a.o ABSOLUTE
    ../fplib/printf2b.s                      0x00000000   Number         0  printf2b.o ABSOLUTE
    ../fplib/usenofp.s                       0x00000000   Number         0  usenofp.o ABSOLUTE
    ../mathlib/acosf.c                       0x00000000   Number         0  acosf.o ABSOLUTE
    ../mathlib/asinf.c                       0x00000000   Number         0  asinf.o ABSOLUTE
    ../mathlib/atan.c                        0x00000000   Number         0  atan.o ABSOLUTE
    ../mathlib/atan2.c                       0x00000000   Number         0  atan2.o ABSOLUTE
    ../mathlib/atan2f.c                      0x00000000   Number         0  atan2f.o ABSOLUTE
    ../mathlib/cos_i.c                       0x00000000   Number         0  cos_i.o ABSOLUTE
    ../mathlib/cosf.c                        0x00000000   Number         0  cosf.o ABSOLUTE
    ../mathlib/dunder.c                      0x00000000   Number         0  dunder.o ABSOLUTE
    ../mathlib/fabs.c                        0x00000000   Number         0  fabs.o ABSOLUTE
    ../mathlib/fpclassify.c                  0x00000000   Number         0  fpclassify.o ABSOLUTE
    ../mathlib/fpclassifyf.c                 0x00000000   Number         0  fpclassifyf.o ABSOLUTE
    ../mathlib/funder.c                      0x00000000   Number         0  funder.o ABSOLUTE
    ../mathlib/poly.c                        0x00000000   Number         0  poly.o ABSOLUTE
    ../mathlib/qnan.c                        0x00000000   Number         0  qnan.o ABSOLUTE
    ../mathlib/rred.c                        0x00000000   Number         0  rred.o ABSOLUTE
    ../mathlib/rredf.c                       0x00000000   Number         0  rredf.o ABSOLUTE
    ../mathlib/sin.c                         0x00000000   Number         0  sin.o ABSOLUTE
    ../mathlib/sin_i.c                       0x00000000   Number         0  sin_i.o ABSOLUTE
    ../mathlib/sinf.c                        0x00000000   Number         0  sinf.o ABSOLUTE
    ../mathlib/sqrt.c                        0x00000000   Number         0  sqrt.o ABSOLUTE
    ../mathlib/sqrtf.c                       0x00000000   Number         0  sqrtf.o ABSOLUTE
    BMI088Middleware.c                       0x00000000   Number         0  bmi088middleware.o ABSOLUTE
    BMI088driver.c                           0x00000000   Number         0  bmi088driver.o ABSOLUTE
    CRC.c                                    0x00000000   Number         0  crc.o ABSOLUTE
    DJI_motor.c                              0x00000000   Number         0  dji_motor.o ABSOLUTE
    DM_motor.c                               0x00000000   Number         0  dm_motor.o ABSOLUTE
    INS.c                                    0x00000000   Number         0  ins.o ABSOLUTE
    INS_task.c                               0x00000000   Number         0  ins_task.o ABSOLUTE
    MadgwickAHRS.c                           0x00000000   Number         0  madgwickahrs.o ABSOLUTE
    MahonyAHRS.c                             0x00000000   Number         0  mahonyahrs.o ABSOLUTE
    QuaternionEKF.c                          0x00000000   Number         0  quaternionekf.o ABSOLUTE
    arm_common_tables.c                      0x00000000   Number         0  arm_common_tables.o ABSOLUTE
    arm_cos_f32.c                            0x00000000   Number         0  arm_cos_f32.o ABSOLUTE
    arm_mat_add_f32.c                        0x00000000   Number         0  arm_mat_add_f32.o ABSOLUTE
    arm_mat_init_f32.c                       0x00000000   Number         0  arm_mat_init_f32.o ABSOLUTE
    arm_mat_inverse_f32.c                    0x00000000   Number         0  arm_mat_inverse_f32.o ABSOLUTE
    arm_mat_mult_f32.c                       0x00000000   Number         0  arm_mat_mult_f32.o ABSOLUTE
    arm_mat_sub_f32.c                        0x00000000   Number         0  arm_mat_sub_f32.o ABSOLUTE
    arm_mat_trans_f32.c                      0x00000000   Number         0  arm_mat_trans_f32.o ABSOLUTE
    arm_sin_f32.c                            0x00000000   Number         0  arm_sin_f32.o ABSOLUTE
    balance_chassis.c                        0x00000000   Number         0  balance_chassis.o ABSOLUTE
    bmi088.c                                 0x00000000   Number         0  bmi088.o ABSOLUTE
    bsp_can.c                                0x00000000   Number         0  bsp_can.o ABSOLUTE
    bsp_dwt.c                                0x00000000   Number         0  bsp_dwt.o ABSOLUTE
    bsp_gpio.c                               0x00000000   Number         0  bsp_gpio.o ABSOLUTE
    bsp_iic.c                                0x00000000   Number         0  bsp_iic.o ABSOLUTE
    bsp_pwm.c                                0x00000000   Number         0  bsp_pwm.o ABSOLUTE
    bsp_spi.c                                0x00000000   Number         0  bsp_spi.o ABSOLUTE
    bsp_usart.c                              0x00000000   Number         0  bsp_usart.o ABSOLUTE
    buzzer.c                                 0x00000000   Number         0  buzzer.o ABSOLUTE
    chassis.c                                0x00000000   Number         0  chassis.o ABSOLUTE
    chassis_task.c                           0x00000000   Number         0  chassis_task.o ABSOLUTE
    cmsis_os2.c                              0x00000000   Number         0  cmsis_os2.o ABSOLUTE
    croutine.c                               0x00000000   Number         0  croutine.o ABSOLUTE
    daemon.c                                 0x00000000   Number         0  daemon.o ABSOLUTE
    daemon_task.c                            0x00000000   Number         0  daemon_task.o ABSOLUTE
    dc.s                                     0x00000000   Number         0  dc.o ABSOLUTE
    defense_center.c                         0x00000000   Number         0  defense_center.o ABSOLUTE
    digital_pid.c                            0x00000000   Number         0  digital_pid.o ABSOLUTE
    dma.c                                    0x00000000   Number         0  dma.o ABSOLUTE
    drv_motor.c                              0x00000000   Number         0  drv_motor.o ABSOLUTE
    event_groups.c                           0x00000000   Number         0  event_groups.o ABSOLUTE
    fdcan.c                                  0x00000000   Number         0  fdcan.o ABSOLUTE
    freertos.c                               0x00000000   Number         0  freertos.o ABSOLUTE
    gimbal.c                                 0x00000000   Number         0  gimbal.o ABSOLUTE
    gimbal_task.c                            0x00000000   Number         0  gimbal_task.o ABSOLUTE
    gpio.c                                   0x00000000   Number         0  gpio.o ABSOLUTE
    heap_4.c                                 0x00000000   Number         0  heap_4.o ABSOLUTE
    i2c.c                                    0x00000000   Number         0  i2c.o ABSOLUTE
    kalman_filter.c                          0x00000000   Number         0  kalman_filter.o ABSOLUTE
    kalman_one_filter.c                      0x00000000   Number         0  kalman_one_filter.o ABSOLUTE
    list.c                                   0x00000000   Number         0  list.o ABSOLUTE
    lms.c                                    0x00000000   Number         0  lms.o ABSOLUTE
    lpf.c                                    0x00000000   Number         0  lpf.o ABSOLUTE
    mahony_filter.c                          0x00000000   Number         0  mahony_filter.o ABSOLUTE
    main.c                                   0x00000000   Number         0  main.o ABSOLUTE
    message_center.c                         0x00000000   Number         0  message_center.o ABSOLUTE
    normal_filter.c                          0x00000000   Number         0  normal_filter.o ABSOLUTE
    ols.c                                    0x00000000   Number         0  ols.o ABSOLUTE
    pid.c                                    0x00000000   Number         0  pid.o ABSOLUTE
    port.c                                   0x00000000   Number         0  port.o ABSOLUTE
    procotol.c                               0x00000000   Number         0  procotol.o ABSOLUTE
    procotol_task.c                          0x00000000   Number         0  procotol_task.o ABSOLUTE
    queue.c                                  0x00000000   Number         0  queue.o ABSOLUTE
    remote_control.c                         0x00000000   Number         0  remote_control.o ABSOLUTE
    rls.c                                    0x00000000   Number         0  rls.o ABSOLUTE
    rng.c                                    0x00000000   Number         0  rng.o ABSOLUTE
    robot_frame_config.c                     0x00000000   Number         0  robot_frame_config.o ABSOLUTE
    robot_frame_init.c                       0x00000000   Number         0  robot_frame_init.o ABSOLUTE
    shoot.c                                  0x00000000   Number         0  shoot.o ABSOLUTE
    shoot_task.c                             0x00000000   Number         0  shoot_task.o ABSOLUTE
    signal_generator.c                       0x00000000   Number         0  signal_generator.o ABSOLUTE
    spi.c                                    0x00000000   Number         0  spi.o ABSOLUTE
    startup_stm32h723xx.s                    0x00000000   Number         0  startup_stm32h723xx.o ABSOLUTE
    stm32h7xx_hal.c                          0x00000000   Number         0  stm32h7xx_hal.o ABSOLUTE
    stm32h7xx_hal_cortex.c                   0x00000000   Number         0  stm32h7xx_hal_cortex.o ABSOLUTE
    stm32h7xx_hal_dma.c                      0x00000000   Number         0  stm32h7xx_hal_dma.o ABSOLUTE
    stm32h7xx_hal_dma_ex.c                   0x00000000   Number         0  stm32h7xx_hal_dma_ex.o ABSOLUTE
    stm32h7xx_hal_exti.c                     0x00000000   Number         0  stm32h7xx_hal_exti.o ABSOLUTE
    stm32h7xx_hal_fdcan.c                    0x00000000   Number         0  stm32h7xx_hal_fdcan.o ABSOLUTE
    stm32h7xx_hal_flash.c                    0x00000000   Number         0  stm32h7xx_hal_flash.o ABSOLUTE
    stm32h7xx_hal_flash_ex.c                 0x00000000   Number         0  stm32h7xx_hal_flash_ex.o ABSOLUTE
    stm32h7xx_hal_gpio.c                     0x00000000   Number         0  stm32h7xx_hal_gpio.o ABSOLUTE
    stm32h7xx_hal_hsem.c                     0x00000000   Number         0  stm32h7xx_hal_hsem.o ABSOLUTE
    stm32h7xx_hal_i2c.c                      0x00000000   Number         0  stm32h7xx_hal_i2c.o ABSOLUTE
    stm32h7xx_hal_i2c_ex.c                   0x00000000   Number         0  stm32h7xx_hal_i2c_ex.o ABSOLUTE
    stm32h7xx_hal_mdma.c                     0x00000000   Number         0  stm32h7xx_hal_mdma.o ABSOLUTE
    stm32h7xx_hal_msp.c                      0x00000000   Number         0  stm32h7xx_hal_msp.o ABSOLUTE
    stm32h7xx_hal_pwr.c                      0x00000000   Number         0  stm32h7xx_hal_pwr.o ABSOLUTE
    stm32h7xx_hal_pwr_ex.c                   0x00000000   Number         0  stm32h7xx_hal_pwr_ex.o ABSOLUTE
    stm32h7xx_hal_rcc.c                      0x00000000   Number         0  stm32h7xx_hal_rcc.o ABSOLUTE
    stm32h7xx_hal_rcc_ex.c                   0x00000000   Number         0  stm32h7xx_hal_rcc_ex.o ABSOLUTE
    stm32h7xx_hal_rng.c                      0x00000000   Number         0  stm32h7xx_hal_rng.o ABSOLUTE
    stm32h7xx_hal_rng_ex.c                   0x00000000   Number         0  stm32h7xx_hal_rng_ex.o ABSOLUTE
    stm32h7xx_hal_spi.c                      0x00000000   Number         0  stm32h7xx_hal_spi.o ABSOLUTE
    stm32h7xx_hal_spi_ex.c                   0x00000000   Number         0  stm32h7xx_hal_spi_ex.o ABSOLUTE
    stm32h7xx_hal_tim.c                      0x00000000   Number         0  stm32h7xx_hal_tim.o ABSOLUTE
    stm32h7xx_hal_tim_ex.c                   0x00000000   Number         0  stm32h7xx_hal_tim_ex.o ABSOLUTE
    stm32h7xx_hal_timebase_tim.c             0x00000000   Number         0  stm32h7xx_hal_timebase_tim.o ABSOLUTE
    stm32h7xx_hal_uart.c                     0x00000000   Number         0  stm32h7xx_hal_uart.o ABSOLUTE
    stm32h7xx_hal_uart_ex.c                  0x00000000   Number         0  stm32h7xx_hal_uart_ex.o ABSOLUTE
    stm32h7xx_it.c                           0x00000000   Number         0  stm32h7xx_it.o ABSOLUTE
    stream_buffer.c                          0x00000000   Number         0  stream_buffer.o ABSOLUTE
    system_stm32h7xx.c                       0x00000000   Number         0  system_stm32h7xx.o ABSOLUTE
    tasks.c                                  0x00000000   Number         0  tasks.o ABSOLUTE
    tim.c                                    0x00000000   Number         0  tim.o ABSOLUTE
    timers.c                                 0x00000000   Number         0  timers.o ABSOLUTE
    usart.c                                  0x00000000   Number         0  usart.o ABSOLUTE
    user_lib.c                               0x00000000   Number         0  user_lib.o ABSOLUTE
    vmc.c                                    0x00000000   Number         0  vmc.o ABSOLUTE
    vofa.c                                   0x00000000   Number         0  vofa.o ABSOLUTE
    wfly_control.c                           0x00000000   Number         0  wfly_control.o ABSOLUTE
    ws2812.c                                 0x00000000   Number         0  ws2812.o ABSOLUTE
    RESET                                    0x08000000   Section      716  startup_stm32h723xx.o(RESET)
    !!!main                                  0x080002cc   Section        8  __main.o(!!!main)
    !!!scatter                               0x080002d4   Section       92  __scatter.o(!!!scatter)
    !!dczerorl2                              0x08000330   Section       90  __dczerorl2.o(!!dczerorl2)
    !!handler_null                           0x0800038c   Section        2  __scatter.o(!!handler_null)
    !!handler_zi                             0x08000390   Section       28  __scatter_zi.o(!!handler_zi)
    .ARM.Collect$$libinit$$00000000          0x080003ac   Section        2  libinit.o(.ARM.Collect$$libinit$$00000000)
    .ARM.Collect$$libinit$$00000001          0x080003ae   Section        4  libinit2.o(.ARM.Collect$$libinit$$00000001)
    .ARM.Collect$$libinit$$00000004          0x080003b2   Section        0  libinit2.o(.ARM.Collect$$libinit$$00000004)
    .ARM.Collect$$libinit$$00000006          0x080003b2   Section        0  libinit2.o(.ARM.Collect$$libinit$$00000006)
    .ARM.Collect$$libinit$$00000007          0x080003b2   Section        8  libinit2.o(.ARM.Collect$$libinit$$00000007)
    .ARM.Collect$$libinit$$0000000C          0x080003ba   Section        0  libinit2.o(.ARM.Collect$$libinit$$0000000C)
    .ARM.Collect$$libinit$$0000000E          0x080003ba   Section        0  libinit2.o(.ARM.Collect$$libinit$$0000000E)
    .ARM.Collect$$libinit$$00000010          0x080003ba   Section        0  libinit2.o(.ARM.Collect$$libinit$$00000010)
    .ARM.Collect$$libinit$$00000011          0x080003ba   Section        6  libinit2.o(.ARM.Collect$$libinit$$00000011)
    .ARM.Collect$$libinit$$00000013          0x080003c0   Section        0  libinit2.o(.ARM.Collect$$libinit$$00000013)
    .ARM.Collect$$libinit$$00000014          0x080003c0   Section       12  libinit2.o(.ARM.Collect$$libinit$$00000014)
    .ARM.Collect$$libinit$$00000015          0x080003cc   Section        0  libinit2.o(.ARM.Collect$$libinit$$00000015)
    .ARM.Collect$$libinit$$00000017          0x080003cc   Section        0  libinit2.o(.ARM.Collect$$libinit$$00000017)
    .ARM.Collect$$libinit$$00000019          0x080003cc   Section        0  libinit2.o(.ARM.Collect$$libinit$$00000019)
    .ARM.Collect$$libinit$$0000001B          0x080003cc   Section        0  libinit2.o(.ARM.Collect$$libinit$$0000001B)
    .ARM.Collect$$libinit$$0000001D          0x080003cc   Section        0  libinit2.o(.ARM.Collect$$libinit$$0000001D)
    .ARM.Collect$$libinit$$0000001F          0x080003cc   Section        0  libinit2.o(.ARM.Collect$$libinit$$0000001F)
    .ARM.Collect$$libinit$$00000021          0x080003cc   Section        0  libinit2.o(.ARM.Collect$$libinit$$00000021)
    .ARM.Collect$$libinit$$00000023          0x080003cc   Section        0  libinit2.o(.ARM.Collect$$libinit$$00000023)
    .ARM.Collect$$libinit$$00000025          0x080003cc   Section        0  libinit2.o(.ARM.Collect$$libinit$$00000025)
    .ARM.Collect$$libinit$$00000027          0x080003cc   Section        0  libinit2.o(.ARM.Collect$$libinit$$00000027)
    .ARM.Collect$$libinit$$0000002E          0x080003cc   Section        0  libinit2.o(.ARM.Collect$$libinit$$0000002E)
    .ARM.Collect$$libinit$$00000030          0x080003cc   Section        0  libinit2.o(.ARM.Collect$$libinit$$00000030)
    .ARM.Collect$$libinit$$00000032          0x080003cc   Section        0  libinit2.o(.ARM.Collect$$libinit$$00000032)
    .ARM.Collect$$libinit$$00000034          0x080003cc   Section        0  libinit2.o(.ARM.Collect$$libinit$$00000034)
    .ARM.Collect$$libinit$$00000035          0x080003cc   Section        2  libinit2.o(.ARM.Collect$$libinit$$00000035)
    .ARM.Collect$$libshutdown$$00000000      0x080003ce   Section        2  libshutdown.o(.ARM.Collect$$libshutdown$$00000000)
    .ARM.Collect$$libshutdown$$00000002      0x080003d0   Section        0  libshutdown2.o(.ARM.Collect$$libshutdown$$00000002)
    .ARM.Collect$$libshutdown$$00000004      0x080003d0   Section        0  libshutdown2.o(.ARM.Collect$$libshutdown$$00000004)
    .ARM.Collect$$libshutdown$$00000007      0x080003d0   Section        0  libshutdown2.o(.ARM.Collect$$libshutdown$$00000007)
    .ARM.Collect$$libshutdown$$0000000A      0x080003d0   Section        0  libshutdown2.o(.ARM.Collect$$libshutdown$$0000000A)
    .ARM.Collect$$libshutdown$$0000000C      0x080003d0   Section        0  libshutdown2.o(.ARM.Collect$$libshutdown$$0000000C)
    .ARM.Collect$$libshutdown$$0000000F      0x080003d0   Section        0  libshutdown2.o(.ARM.Collect$$libshutdown$$0000000F)
    .ARM.Collect$$libshutdown$$00000010      0x080003d0   Section        2  libshutdown2.o(.ARM.Collect$$libshutdown$$00000010)
    .ARM.Collect$$rtentry$$00000000          0x080003d2   Section        0  __rtentry.o(.ARM.Collect$$rtentry$$00000000)
    .ARM.Collect$$rtentry$$00000002          0x080003d2   Section        0  __rtentry2.o(.ARM.Collect$$rtentry$$00000002)
    .ARM.Collect$$rtentry$$00000004          0x080003d2   Section        6  __rtentry4.o(.ARM.Collect$$rtentry$$00000004)
    .ARM.Collect$$rtentry$$00000009          0x080003d8   Section        0  __rtentry2.o(.ARM.Collect$$rtentry$$00000009)
    .ARM.Collect$$rtentry$$0000000A          0x080003d8   Section        4  __rtentry2.o(.ARM.Collect$$rtentry$$0000000A)
    .ARM.Collect$$rtentry$$0000000C          0x080003dc   Section        0  __rtentry2.o(.ARM.Collect$$rtentry$$0000000C)
    .ARM.Collect$$rtentry$$0000000D          0x080003dc   Section        8  __rtentry2.o(.ARM.Collect$$rtentry$$0000000D)
    .ARM.Collect$$rtexit$$00000000           0x080003e4   Section        2  rtexit.o(.ARM.Collect$$rtexit$$00000000)
    .ARM.Collect$$rtexit$$00000002           0x080003e6   Section        0  rtexit2.o(.ARM.Collect$$rtexit$$00000002)
    .ARM.Collect$$rtexit$$00000003           0x080003e6   Section        4  rtexit2.o(.ARM.Collect$$rtexit$$00000003)
    .ARM.Collect$$rtexit$$00000004           0x080003ea   Section        6  rtexit2.o(.ARM.Collect$$rtexit$$00000004)
    $v0                                      0x080003f0   Number         0  startup_stm32h723xx.o(.text)
    .text                                    0x080003f0   Section       72  startup_stm32h723xx.o(.text)
    .text                                    0x08000438   Section       16  rt_ctype_table.o(.text)
    .text                                    0x08000448   Section        0  h1_alloc.o(.text)
    .text                                    0x080004a6   Section      240  lludivv7m.o(.text)
    .text                                    0x08000596   Section        0  toupper.o(.text)
    .text                                    0x080005b4   Section        0  strnlen.o(.text)
    .text                                    0x080005cc   Section        0  strcpy.o(.text)
    .text                                    0x08000614   Section      138  rt_memcpy_v6.o(.text)
    .text                                    0x0800069e   Section      100  rt_memcpy_w.o(.text)
    .text                                    0x08000702   Section      122  rt_memmove_w.o(.text)
    .text                                    0x0800077c   Section       16  aeabi_memset4.o(.text)
    .text                                    0x0800078c   Section       68  rt_memclr.o(.text)
    .text                                    0x080007d0   Section       78  rt_memclr_w.o(.text)
    .text                                    0x08000820   Section      124  strcmpv7m_pel.o(.text)
    .text                                    0x0800089c   Section        0  heapauxi.o(.text)
    .text                                    0x080008a4   Section        8  rt_heap_descriptor_intlibspace.o(.text)
    .text                                    0x080008ac   Section        8  rt_locale_intlibspace.o(.text)
    .text                                    0x080008b4   Section        0  hguard.o(.text)
    .text                                    0x080008b8   Section        0  init_alloc.o(.text)
    .text                                    0x08000942   Section        0  h1_init.o(.text)
    .text                                    0x0800094e   Section        0  h1_free.o(.text)
    .text                                    0x0800099c   Section        0  _rserrno.o(.text)
    .text                                    0x080009b2   Section        0  memchr.o(.text)
    .text                                    0x080009c8   Section        8  libspace.o(.text)
    .text                                    0x080009d0   Section        8  rt_errno_addr_intlibspace.o(.text)
    .text                                    0x080009d8   Section        0  maybetermalloc1.o(.text)
    .text                                    0x080009d8   Section        0  h1_extend.o(.text)
    .text                                    0x08000a0c   Section        0  defsig_rtmem_outer.o(.text)
    .text                                    0x08000a1a   Section        2  use_no_semi.o(.text)
    .text                                    0x08000a1c   Section        0  indicate_semi.o(.text)
    .text                                    0x08000a1c   Section       74  sys_stackheap_outer.o(.text)
    .text                                    0x08000a66   Section        0  exit.o(.text)
    .text                                    0x08000a78   Section        0  defsig_exit.o(.text)
    .text                                    0x08000a84   Section        0  defsig_rtmem_inner.o(.text)
    .text                                    0x08000ad4   Section        0  sys_exit.o(.text)
    .text                                    0x08000ae0   Section        0  defsig_general.o(.text)
    .text                                    0x08000b12   Section        0  sys_wrch.o(.text)
    BMI088_Accel_INT_Callback                0x08000b21   Thumb Code    56  bmi088.o(.text.BMI088_Accel_INT_Callback)
    [Anonymous Symbol]                       0x08000b20   Section        0  bmi088.o(.text.BMI088_Accel_INT_Callback)
    BMI088_Accel_Init                        0x08000b59   Thumb Code   440  bmi088.o(.text.BMI088_Accel_Init)
    [Anonymous Symbol]                       0x08000b58   Section        0  bmi088.o(.text.BMI088_Accel_Init)
    BMI088_Accel_Read                        0x08000d19   Thumb Code    92  bmi088.o(.text.BMI088_Accel_Read)
    [Anonymous Symbol]                       0x08000d18   Section        0  bmi088.o(.text.BMI088_Accel_Read)
    BMI088_Accel_SPI_Finish_Callback         0x08000d79   Thumb Code   340  bmi088.o(.text.BMI088_Accel_SPI_Finish_Callback)
    [Anonymous Symbol]                       0x08000d78   Section        0  bmi088.o(.text.BMI088_Accel_SPI_Finish_Callback)
    BMI088_Accel_Write_SingleReg             0x08000ed1   Thumb Code    46  bmi088.o(.text.BMI088_Accel_Write_SingleReg)
    [Anonymous Symbol]                       0x08000ed0   Section        0  bmi088.o(.text.BMI088_Accel_Write_SingleReg)
    [Anonymous Symbol]                       0x08000f00   Section        0  bmi088.o(.text.BMI088_Calibrate_IMU)
    __arm_cp.5_8                             0x08001298   Number         4  bmi088.o(.text.BMI088_Calibrate_IMU)
    __arm_cp.5_9                             0x0800129c   Number         4  bmi088.o(.text.BMI088_Calibrate_IMU)
    BMI088_Filter_Init                       0x080016b9   Thumb Code     8  bmi088.o(.text.BMI088_Filter_Init)
    [Anonymous Symbol]                       0x080016b8   Section        0  bmi088.o(.text.BMI088_Filter_Init)
    BMI088_Gyro_INT_Callback                 0x080016c1   Thumb Code    56  bmi088.o(.text.BMI088_Gyro_INT_Callback)
    [Anonymous Symbol]                       0x080016c0   Section        0  bmi088.o(.text.BMI088_Gyro_INT_Callback)
    BMI088_Gyro_Init                         0x080016f9   Thumb Code   460  bmi088.o(.text.BMI088_Gyro_Init)
    [Anonymous Symbol]                       0x080016f8   Section        0  bmi088.o(.text.BMI088_Gyro_Init)
    BMI088_Gyro_Read                         0x080018d1   Thumb Code    92  bmi088.o(.text.BMI088_Gyro_Read)
    [Anonymous Symbol]                       0x080018d0   Section        0  bmi088.o(.text.BMI088_Gyro_Read)
    BMI088_Gyro_SPI_Finish_Callback          0x08001931   Thumb Code   312  bmi088.o(.text.BMI088_Gyro_SPI_Finish_Callback)
    [Anonymous Symbol]                       0x08001930   Section        0  bmi088.o(.text.BMI088_Gyro_SPI_Finish_Callback)
    BMI088_Gyro_Write_SingleReg              0x08001a69   Thumb Code    46  bmi088.o(.text.BMI088_Gyro_Write_SingleReg)
    [Anonymous Symbol]                       0x08001a68   Section        0  bmi088.o(.text.BMI088_Gyro_Write_SingleReg)
    BMI088_Kalman_Filter_Init                0x08001a99   Thumb Code   112  bmi088.o(.text.BMI088_Kalman_Filter_Init)
    [Anonymous Symbol]                       0x08001a98   Section        0  bmi088.o(.text.BMI088_Kalman_Filter_Init)
    [Anonymous Symbol]                       0x08001b10   Section        0  bmi088.o(.text.BMI088_Read_All)
    [Anonymous Symbol]                       0x08001e08   Section        0  bmi088.o(.text.BMI088_Register)
    BMI088_Set_Mode                          0x08001fe9   Thumb Code    90  bmi088.o(.text.BMI088_Set_Mode)
    [Anonymous Symbol]                       0x08001fe8   Section        0  bmi088.o(.text.BMI088_Set_Mode)
    [Anonymous Symbol]                       0x08002048   Section        0  bmi088.o(.text.BMI088_Temp_Control)
    BodyFrameToEarthFrame                    0x080021a1   Thumb Code   258  ins.o(.text.BodyFrameToEarthFrame)
    [Anonymous Symbol]                       0x080021a0   Section        0  ins.o(.text.BodyFrameToEarthFrame)
    [Anonymous Symbol]                       0x080022a8   Section        0  stm32h7xx_it.o(.text.BusFault_Handler)
    [Anonymous Symbol]                       0x080022b0   Section        0  buzzer.o(.text.Buzzer_One_Note)
    [Anonymous Symbol]                       0x08002368   Section        0  buzzer.o(.text.Buzzer_Play)
    [Anonymous Symbol]                       0x080023f8   Section        0  buzzer.o(.text.Buzzer_Register)
    [Anonymous Symbol]                       0x08002480   Section        0  buzzer.o(.text.Buzzer_Silence)
    [Anonymous Symbol]                       0x080024a0   Section        0  buzzer.o(.text.Buzzer_Stop)
    [Anonymous Symbol]                       0x080024e0   Section        0  buzzer.o(.text.Buzzer_Task)
    [Anonymous Symbol]                       0x08002578   Section        0  daemon_task.o(.text.Buzzer_Task_Init)
    CANFIFOxCallback                         0x080025d1   Thumb Code   246  bsp_can.o(.text.CANFIFOxCallback)
    [Anonymous Symbol]                       0x080025d0   Section        0  bsp_can.o(.text.CANFIFOxCallback)
    CAN_Add_Filter                           0x080026c9   Thumb Code   346  bsp_can.o(.text.CAN_Add_Filter)
    [Anonymous Symbol]                       0x080026c8   Section        0  bsp_can.o(.text.CAN_Add_Filter)
    [Anonymous Symbol]                       0x08002828   Section        0  bsp_can.o(.text.CAN_Register)
    CAN_Service_Init                         0x08002949   Thumb Code   294  bsp_can.o(.text.CAN_Service_Init)
    [Anonymous Symbol]                       0x08002948   Section        0  bsp_can.o(.text.CAN_Service_Init)
    [Anonymous Symbol]                       0x08002a70   Section        0  bsp_can.o(.text.CAN_Transmit)
    Chassis_Calibrate_Control                0x08002b29   Thumb Code   140  balance_chassis.o(.text.Chassis_Calibrate_Control)
    [Anonymous Symbol]                       0x08002b28   Section        0  balance_chassis.o(.text.Chassis_Calibrate_Control)
    [Anonymous Symbol]                       0x08002bc0   Section        0  balance_chassis.o(.text.Chassis_Console)
    Chassis_Control_Leg                      0x08002c11   Thumb Code  1264  balance_chassis.o(.text.Chassis_Control_Leg)
    [Anonymous Symbol]                       0x08002c10   Section        0  balance_chassis.o(.text.Chassis_Control_Leg)
    __arm_cp.18_9                            0x08002ff8   Number         4  balance_chassis.o(.text.Chassis_Control_Leg)
    __arm_cp.18_10                           0x08002ffc   Number         4  balance_chassis.o(.text.Chassis_Control_Leg)
    __arm_cp.18_11                           0x08003000   Number         4  balance_chassis.o(.text.Chassis_Control_Leg)
    __arm_cp.18_12                           0x08003004   Number         4  balance_chassis.o(.text.Chassis_Control_Leg)
    Chassis_Debug_Control                    0x08003111   Thumb Code    62  balance_chassis.o(.text.Chassis_Debug_Control)
    [Anonymous Symbol]                       0x08003110   Section        0  balance_chassis.o(.text.Chassis_Debug_Control)
    Chassis_Exception_Control                0x08003151   Thumb Code    54  balance_chassis.o(.text.Chassis_Exception_Control)
    [Anonymous Symbol]                       0x08003150   Section        0  balance_chassis.o(.text.Chassis_Exception_Control)
    [Anonymous Symbol]                       0x08003188   Section        0  balance_chassis.o(.text.Chassis_Handle_Exception)
    [Anonymous Symbol]                       0x080033f0   Section        0  balance_chassis.o(.text.Chassis_Init)
    Chassis_Leg_Update                       0x08003879   Thumb Code   404  balance_chassis.o(.text.Chassis_Leg_Update)
    [Anonymous Symbol]                       0x08003878   Section        0  balance_chassis.o(.text.Chassis_Leg_Update)
    Chassis_Normal_Control                   0x08003a21   Thumb Code  2876  balance_chassis.o(.text.Chassis_Normal_Control)
    [Anonymous Symbol]                       0x08003a20   Section        0  balance_chassis.o(.text.Chassis_Normal_Control)
    __arm_cp.11_8                            0x08003fdc   Number         4  balance_chassis.o(.text.Chassis_Normal_Control)
    __arm_cp.11_9                            0x08003fe0   Number         4  balance_chassis.o(.text.Chassis_Normal_Control)
    __arm_cp.11_10                           0x08003fe4   Number         4  balance_chassis.o(.text.Chassis_Normal_Control)
    [Anonymous Symbol]                       0x08004570   Section        0  balance_chassis.o(.text.Chassis_Observer)
    [Anonymous Symbol]                       0x08004600   Section        0  chassis_task.o(.text.Chassis_Publish)
    [Anonymous Symbol]                       0x08004608   Section        0  balance_chassis.o(.text.Chassis_Reference)
    __arm_cp.7_11                            0x08004a44   Number         4  balance_chassis.o(.text.Chassis_Reference)
    __arm_cp.7_12                            0x08004a48   Number         4  balance_chassis.o(.text.Chassis_Reference)
    __arm_cp.7_13                            0x08004a4c   Number         4  balance_chassis.o(.text.Chassis_Reference)
    __arm_cp.7_15                            0x08004a54   Number         4  balance_chassis.o(.text.Chassis_Reference)
    __arm_cp.7_16                            0x08004a58   Number         4  balance_chassis.o(.text.Chassis_Reference)
    [Anonymous Symbol]                       0x08004d68   Section        0  balance_chassis.o(.text.Chassis_Send_Cmd)
    __arm_cp.14_10                           0x08005330   Number         4  balance_chassis.o(.text.Chassis_Send_Cmd)
    __arm_cp.14_11                           0x08005334   Number         4  balance_chassis.o(.text.Chassis_Send_Cmd)
    __arm_cp.14_12                           0x08005338   Number         4  balance_chassis.o(.text.Chassis_Send_Cmd)
    __arm_cp.14_13                           0x0800533c   Number         4  balance_chassis.o(.text.Chassis_Send_Cmd)
    __arm_cp.14_14                           0x08005340   Number         4  balance_chassis.o(.text.Chassis_Send_Cmd)
    __arm_cp.14_15                           0x08005344   Number         4  balance_chassis.o(.text.Chassis_Send_Cmd)
    __arm_cp.14_16                           0x08005348   Number         4  balance_chassis.o(.text.Chassis_Send_Cmd)
    __arm_cp.14_17                           0x0800534c   Number         4  balance_chassis.o(.text.Chassis_Send_Cmd)
    __arm_cp.14_18                           0x08005350   Number         4  balance_chassis.o(.text.Chassis_Send_Cmd)
    [Anonymous Symbol]                       0x08005ab8   Section        0  balance_chassis.o(.text.Chassis_Set_Mode)
    __arm_cp.6_4                             0x08006090   Number         4  balance_chassis.o(.text.Chassis_Set_Mode)
    Chassis_Speed_Update                     0x080061b1   Thumb Code  1512  balance_chassis.o(.text.Chassis_Speed_Update)
    [Anonymous Symbol]                       0x080061b0   Section        0  balance_chassis.o(.text.Chassis_Speed_Update)
    __arm_cp.4_10                            0x080065d4   Number         4  balance_chassis.o(.text.Chassis_Speed_Update)
    __arm_cp.4_11                            0x080065d8   Number         4  balance_chassis.o(.text.Chassis_Speed_Update)
    __arm_cp.4_12                            0x080065dc   Number         4  balance_chassis.o(.text.Chassis_Speed_Update)
    __arm_cp.4_13                            0x080065e0   Number         4  balance_chassis.o(.text.Chassis_Speed_Update)
    __arm_cp.4_14                            0x080065e4   Number         4  balance_chassis.o(.text.Chassis_Speed_Update)
    __arm_cp.4_15                            0x080065e8   Number         4  balance_chassis.o(.text.Chassis_Speed_Update)
    Chassis_Task                             0x080067a9   Thumb Code    98  chassis_task.o(.text.Chassis_Task)
    [Anonymous Symbol]                       0x080067a8   Section        0  chassis_task.o(.text.Chassis_Task)
    [Anonymous Symbol]                       0x08006810   Section        0  chassis_task.o(.text.Chassis_Task_Init)
    Chassis_Zero_Control                     0x08006899   Thumb Code    44  balance_chassis.o(.text.Chassis_Zero_Control)
    [Anonymous Symbol]                       0x08006898   Section        0  balance_chassis.o(.text.Chassis_Zero_Control)
    Check_Len                                0x080068c9   Thumb Code    32  message_center.o(.text.Check_Len)
    [Anonymous Symbol]                       0x080068c8   Section        0  message_center.o(.text.Check_Len)
    Check_Name                               0x080068e9   Thumb Code    28  message_center.o(.text.Check_Name)
    [Anonymous Symbol]                       0x080068e8   Section        0  message_center.o(.text.Check_Name)
    [Anonymous Symbol]                       0x08006908   Section        0  user_lib.o(.text.Cross3d)
    [Anonymous Symbol]                       0x08006980   Section        0  dji_motor.o(.text.DJI_Motor_Control)
    [Anonymous Symbol]                       0x08006d28   Section        0  dji_motor.o(.text.DJI_Motor_Disable)
    [Anonymous Symbol]                       0x08006d38   Section        0  dji_motor.o(.text.DJI_Motor_Enable)
    [Anonymous Symbol]                       0x08006d48   Section        0  dji_motor.o(.text.DJI_Motor_Error_Judge)
    [Anonymous Symbol]                       0x08006f50   Section        0  dji_motor.o(.text.DJI_Motor_GetVal)
    [Anonymous Symbol]                       0x08007088   Section        0  dji_motor.o(.text.DJI_Motor_Init)
    DJI_Motor_Lost_Callback                  0x08007191   Thumb Code    70  dji_motor.o(.text.DJI_Motor_Lost_Callback)
    [Anonymous Symbol]                       0x08007190   Section        0  dji_motor.o(.text.DJI_Motor_Lost_Callback)
    [Anonymous Symbol]                       0x080071d8   Section        0  stm32h7xx_it.o(.text.DMA1_Stream0_IRQHandler)
    [Anonymous Symbol]                       0x080071e8   Section        0  stm32h7xx_it.o(.text.DMA1_Stream1_IRQHandler)
    [Anonymous Symbol]                       0x080071f8   Section        0  stm32h7xx_it.o(.text.DMA1_Stream2_IRQHandler)
    [Anonymous Symbol]                       0x08007208   Section        0  stm32h7xx_it.o(.text.DMA1_Stream3_IRQHandler)
    [Anonymous Symbol]                       0x08007218   Section        0  stm32h7xx_it.o(.text.DMA1_Stream4_IRQHandler)
    DMA_CalcBaseAndBitshift                  0x08007229   Thumb Code   458  stm32h7xx_hal_dma.o(.text.DMA_CalcBaseAndBitshift)
    [Anonymous Symbol]                       0x08007228   Section        0  stm32h7xx_hal_dma.o(.text.DMA_CalcBaseAndBitshift)
    DMA_CalcDMAMUXChannelBaseAndMask         0x080073f9   Thumb Code   376  stm32h7xx_hal_dma.o(.text.DMA_CalcDMAMUXChannelBaseAndMask)
    [Anonymous Symbol]                       0x080073f8   Section        0  stm32h7xx_hal_dma.o(.text.DMA_CalcDMAMUXChannelBaseAndMask)
    DMA_CalcDMAMUXRequestGenBaseAndMask      0x08007571   Thumb Code   298  stm32h7xx_hal_dma.o(.text.DMA_CalcDMAMUXRequestGenBaseAndMask)
    [Anonymous Symbol]                       0x08007570   Section        0  stm32h7xx_hal_dma.o(.text.DMA_CalcDMAMUXRequestGenBaseAndMask)
    DMA_CheckFifoParam                       0x080076a1   Thumb Code   240  stm32h7xx_hal_dma.o(.text.DMA_CheckFifoParam)
    [Anonymous Symbol]                       0x080076a0   Section        0  stm32h7xx_hal_dma.o(.text.DMA_CheckFifoParam)
    DMA_SetConfig                            0x08007791   Thumb Code  1300  stm32h7xx_hal_dma.o(.text.DMA_SetConfig)
    [Anonymous Symbol]                       0x08007790   Section        0  stm32h7xx_hal_dma.o(.text.DMA_SetConfig)
    [Anonymous Symbol]                       0x08007ca8   Section        0  dm_motor.o(.text.DM_MIT_Ctrl)
    [Anonymous Symbol]                       0x08007e00   Section        0  dm_motor.o(.text.DM_Motor_Control)
    DM_Motor_Decode                          0x080081e1   Thumb Code   356  dm_motor.o(.text.DM_Motor_Decode)
    [Anonymous Symbol]                       0x080081e0   Section        0  dm_motor.o(.text.DM_Motor_Decode)
    [Anonymous Symbol]                       0x08008368   Section        0  dm_motor.o(.text.DM_Motor_Disable)
    [Anonymous Symbol]                       0x080083c0   Section        0  dm_motor.o(.text.DM_Motor_Enable)
    [Anonymous Symbol]                       0x08008418   Section        0  dm_motor.o(.text.DM_Motor_Error_Judge)
    [Anonymous Symbol]                       0x08008568   Section        0  dm_motor.o(.text.DM_Motor_Init)
    DM_Motor_Lost_Callback                   0x08008699   Thumb Code    26  dm_motor.o(.text.DM_Motor_Lost_Callback)
    [Anonymous Symbol]                       0x08008698   Section        0  dm_motor.o(.text.DM_Motor_Lost_Callback)
    DM_Motor_Set_Mode                        0x080086b9   Thumb Code    52  dm_motor.o(.text.DM_Motor_Set_Mode)
    [Anonymous Symbol]                       0x080086b8   Section        0  dm_motor.o(.text.DM_Motor_Set_Mode)
    [Anonymous Symbol]                       0x080086f0   Section        0  dm_motor.o(.text.DM_Motor_Set_Zeropoint)
    [Anonymous Symbol]                       0x08008708   Section        0  dm_motor.o(.text.DM_Motor_Start)
    [Anonymous Symbol]                       0x08008758   Section        0  dm_motor.o(.text.DM_Motor_Stop)
    [Anonymous Symbol]                       0x080087a8   Section        0  dm_motor.o(.text.DM_Pos_Speed_Ctrl)
    [Anonymous Symbol]                       0x08008840   Section        0  dm_motor.o(.text.DM_Speed_Ctrl)
    DWT_CNT_Update                           0x080088a1   Thumb Code   104  bsp_dwt.o(.text.DWT_CNT_Update)
    [Anonymous Symbol]                       0x080088a0   Section        0  bsp_dwt.o(.text.DWT_CNT_Update)
    [Anonymous Symbol]                       0x08008908   Section        0  bsp_dwt.o(.text.DWT_Delay)
    [Anonymous Symbol]                       0x08008960   Section        0  bsp_dwt.o(.text.DWT_GetDeltaT)
    [Anonymous Symbol]                       0x080089b0   Section        0  bsp_dwt.o(.text.DWT_GetTimeline_ms)
    [Anonymous Symbol]                       0x080089f8   Section        0  bsp_dwt.o(.text.DWT_GetTimeline_s)
    [Anonymous Symbol]                       0x08008a48   Section        0  bsp_dwt.o(.text.DWT_Init)
    DWT_System_Time_Update                   0x08008ad9   Thumb Code   252  bsp_dwt.o(.text.DWT_System_Time_Update)
    [Anonymous Symbol]                       0x08008ad8   Section        0  bsp_dwt.o(.text.DWT_System_Time_Update)
    [Anonymous Symbol]                       0x08008bd8   Section        0  stm32h7xx_it.o(.text.DebugMon_Handler)
    Decode_DJI_Motor                         0x08008be1   Thumb Code   552  dji_motor.o(.text.Decode_DJI_Motor)
    [Anonymous Symbol]                       0x08008be0   Section        0  dji_motor.o(.text.Decode_DJI_Motor)
    [Anonymous Symbol]                       0x08008e28   Section        0  digital_pid.o(.text.Digital_PID_Position)
    [Anonymous Symbol]                       0x08009038   Section        0  user_lib.o(.text.Dot3d)
    EKF_Quaternion_Init                      0x08009071   Thumb Code   368  ins.o(.text.EKF_Quaternion_Init)
    [Anonymous Symbol]                       0x08009070   Section        0  ins.o(.text.EKF_Quaternion_Init)
    [Anonymous Symbol]                       0x080091e8   Section        0  stm32h7xx_it.o(.text.EXTI15_10_IRQHandler)
    EarthFrameToBodyFrame                    0x08009201   Thumb Code   258  ins.o(.text.EarthFrameToBodyFrame)
    [Anonymous Symbol]                       0x08009200   Section        0  ins.o(.text.EarthFrameToBodyFrame)
    [Anonymous Symbol]                       0x08009308   Section        0  main.o(.text.Error_Handler)
    [Anonymous Symbol]                       0x08009318   Section        0  system_stm32h7xx.o(.text.ExitRun0Mode)
    [Anonymous Symbol]                       0x08009340   Section        0  stm32h7xx_it.o(.text.FDCAN1_IT0_IRQHandler)
    [Anonymous Symbol]                       0x08009350   Section        0  stm32h7xx_it.o(.text.FDCAN1_IT1_IRQHandler)
    [Anonymous Symbol]                       0x08009360   Section        0  stm32h7xx_it.o(.text.FDCAN2_IT0_IRQHandler)
    [Anonymous Symbol]                       0x08009370   Section        0  stm32h7xx_it.o(.text.FDCAN2_IT1_IRQHandler)
    [Anonymous Symbol]                       0x08009380   Section        0  stm32h7xx_it.o(.text.FDCAN3_IT0_IRQHandler)
    [Anonymous Symbol]                       0x08009390   Section        0  stm32h7xx_it.o(.text.FDCAN3_IT1_IRQHandler)
    FDCAN_CalcultateRamBlockAddresses        0x080093a1   Thumb Code   706  stm32h7xx_hal_fdcan.o(.text.FDCAN_CalcultateRamBlockAddresses)
    [Anonymous Symbol]                       0x080093a0   Section        0  stm32h7xx_hal_fdcan.o(.text.FDCAN_CalcultateRamBlockAddresses)
    FDCAN_CopyMessageToRAM                   0x08009669   Thumb Code   184  stm32h7xx_hal_fdcan.o(.text.FDCAN_CopyMessageToRAM)
    [Anonymous Symbol]                       0x08009668   Section        0  stm32h7xx_hal_fdcan.o(.text.FDCAN_CopyMessageToRAM)
    F_Changing_Integral_Rate                 0x08009721   Thumb Code   340  digital_pid.o(.text.F_Changing_Integral_Rate)
    [Anonymous Symbol]                       0x08009720   Section        0  digital_pid.o(.text.F_Changing_Integral_Rate)
    F_Derivative_Filter                      0x08009879   Thumb Code    54  digital_pid.o(.text.F_Derivative_Filter)
    [Anonymous Symbol]                       0x08009878   Section        0  digital_pid.o(.text.F_Derivative_Filter)
    F_Derivative_On_Measurement              0x080098b1   Thumb Code    42  digital_pid.o(.text.F_Derivative_On_Measurement)
    [Anonymous Symbol]                       0x080098b0   Section        0  digital_pid.o(.text.F_Derivative_On_Measurement)
    F_Error_Handler                          0x080098e1   Thumb Code   168  digital_pid.o(.text.F_Error_Handler)
    [Anonymous Symbol]                       0x080098e0   Section        0  digital_pid.o(.text.F_Error_Handler)
    F_Integral_Limit                         0x08009999   Thumb Code   384  digital_pid.o(.text.F_Integral_Limit)
    [Anonymous Symbol]                       0x08009998   Section        0  digital_pid.o(.text.F_Integral_Limit)
    F_Output_Limit                           0x08009b19   Thumb Code    84  digital_pid.o(.text.F_Output_Limit)
    [Anonymous Symbol]                       0x08009b18   Section        0  digital_pid.o(.text.F_Output_Limit)
    F_Trapezoid_Intergral                    0x08009b71   Thumb Code    50  digital_pid.o(.text.F_Trapezoid_Intergral)
    [Anonymous Symbol]                       0x08009b70   Section        0  digital_pid.o(.text.F_Trapezoid_Intergral)
    Frame_Device_Init                        0x08009ba9   Thumb Code    74  robot_frame_init.o(.text.Frame_Device_Init)
    [Anonymous Symbol]                       0x08009ba8   Section        0  robot_frame_init.o(.text.Frame_Device_Init)
    Frame_MCU_Init                           0x08009bf9   Thumb Code    26  robot_frame_init.o(.text.Frame_MCU_Init)
    [Anonymous Symbol]                       0x08009bf8   Section        0  robot_frame_init.o(.text.Frame_MCU_Init)
    Frame_Task_Init                          0x08009c19   Thumb Code    28  robot_frame_init.o(.text.Frame_Task_Init)
    [Anonymous Symbol]                       0x08009c18   Section        0  robot_frame_init.o(.text.Frame_Task_Init)
    [Anonymous Symbol]                       0x08009c38   Section        0  bsp_gpio.o(.text.GPIO_Register)
    [Anonymous Symbol]                       0x08009ca8   Section        0  gimbal_task.o(.text.Gimbal_Console)
    [Anonymous Symbol]                       0x08009cb0   Section        0  gimbal_task.o(.text.Gimbal_Handle_Exception)
    [Anonymous Symbol]                       0x08009cb8   Section        0  gimbal_task.o(.text.Gimbal_Observer)
    [Anonymous Symbol]                       0x08009cc0   Section        0  gimbal_task.o(.text.Gimbal_Publish)
    [Anonymous Symbol]                       0x08009cc8   Section        0  gimbal_task.o(.text.Gimbal_Reference)
    [Anonymous Symbol]                       0x08009cd0   Section        0  gimbal_task.o(.text.Gimbal_Send_Cmd)
    [Anonymous Symbol]                       0x08009cd8   Section        0  gimbal_task.o(.text.Gimbal_Set_Mode)
    Gimbal_Task                              0x08009ce1   Thumb Code    98  gimbal_task.o(.text.Gimbal_Task)
    [Anonymous Symbol]                       0x08009ce0   Section        0  gimbal_task.o(.text.Gimbal_Task)
    [Anonymous Symbol]                       0x08009d48   Section        0  gimbal_task.o(.text.Gimbal_Task_Init)
    [Anonymous Symbol]                       0x08009dd0   Section        0  stm32h7xx_hal_dma.o(.text.HAL_DMA_Abort)
    [Anonymous Symbol]                       0x0800a748   Section        0  stm32h7xx_hal_dma.o(.text.HAL_DMA_Abort_IT)
    [Anonymous Symbol]                       0x0800adf8   Section        0  stm32h7xx_hal_dma.o(.text.HAL_DMA_DeInit)
    [Anonymous Symbol]                       0x0800b278   Section        0  stm32h7xx_hal_dma.o(.text.HAL_DMA_GetError)
    [Anonymous Symbol]                       0x0800b288   Section        0  stm32h7xx_hal_dma.o(.text.HAL_DMA_IRQHandler)
    [Anonymous Symbol]                       0x0800c448   Section        0  stm32h7xx_hal_dma.o(.text.HAL_DMA_Init)
    [Anonymous Symbol]                       0x0800cda8   Section        0  stm32h7xx_hal_dma.o(.text.HAL_DMA_Start_IT)
    [Anonymous Symbol]                       0x0800d4b0   Section        0  stm32h7xx_hal_fdcan.o(.text.HAL_FDCAN_AbortTxRequest)
    [Anonymous Symbol]                       0x0800d4f8   Section        0  stm32h7xx_hal_fdcan.o(.text.HAL_FDCAN_ActivateNotification)
    [Anonymous Symbol]                       0x0800d5f8   Section        0  stm32h7xx_hal_fdcan.o(.text.HAL_FDCAN_AddMessageToTxFifoQ)
    [Anonymous Symbol]                       0x0800d6c8   Section        0  stm32h7xx_hal_fdcan.o(.text.HAL_FDCAN_ClockCalibrationCallback)
    [Anonymous Symbol]                       0x0800d6d8   Section        0  stm32h7xx_hal_fdcan.o(.text.HAL_FDCAN_ConfigFifoWatermark)
    [Anonymous Symbol]                       0x0800d780   Section        0  stm32h7xx_hal_fdcan.o(.text.HAL_FDCAN_ConfigFilter)
    [Anonymous Symbol]                       0x0800d898   Section        0  stm32h7xx_hal_fdcan.o(.text.HAL_FDCAN_ConfigGlobalFilter)
    [Anonymous Symbol]                       0x0800d8f8   Section        0  stm32h7xx_hal_fdcan.o(.text.HAL_FDCAN_ConfigRxFifoOverwrite)
    [Anonymous Symbol]                       0x0800d978   Section        0  stm32h7xx_hal_fdcan.o(.text.HAL_FDCAN_ErrorCallback)
    [Anonymous Symbol]                       0x0800d980   Section        0  stm32h7xx_hal_fdcan.o(.text.HAL_FDCAN_ErrorStatusCallback)
    [Anonymous Symbol]                       0x0800d990   Section        0  stm32h7xx_hal_fdcan.o(.text.HAL_FDCAN_GetRxFifoFillLevel)
    [Anonymous Symbol]                       0x0800d9c8   Section        0  stm32h7xx_hal_fdcan.o(.text.HAL_FDCAN_GetRxMessage)
    [Anonymous Symbol]                       0x0800dcc0   Section        0  stm32h7xx_hal_fdcan.o(.text.HAL_FDCAN_GetTxFifoFreeLevel)
    [Anonymous Symbol]                       0x0800dcd8   Section        0  stm32h7xx_hal_fdcan.o(.text.HAL_FDCAN_HighPriorityMessageCallback)
    [Anonymous Symbol]                       0x0800dce0   Section        0  stm32h7xx_hal_fdcan.o(.text.HAL_FDCAN_IRQHandler)
    [Anonymous Symbol]                       0x0800e2c8   Section        0  stm32h7xx_hal_fdcan.o(.text.HAL_FDCAN_Init)
    [Anonymous Symbol]                       0x0800e6a8   Section        0  fdcan.o(.text.HAL_FDCAN_MspInit)
    [Anonymous Symbol]                       0x0800e940   Section        0  stm32h7xx_hal_fdcan.o(.text.HAL_FDCAN_RxBufferNewMessageCallback)
    [Anonymous Symbol]                       0x0800e948   Section        0  bsp_can.o(.text.HAL_FDCAN_RxFifo0Callback)
    [Anonymous Symbol]                       0x0800e960   Section        0  bsp_can.o(.text.HAL_FDCAN_RxFifo1Callback)
    [Anonymous Symbol]                       0x0800e978   Section        0  stm32h7xx_hal_fdcan.o(.text.HAL_FDCAN_Start)
    [Anonymous Symbol]                       0x0800e9c8   Section        0  stm32h7xx_hal_fdcan.o(.text.HAL_FDCAN_Stop)
    [Anonymous Symbol]                       0x0800eab8   Section        0  stm32h7xx_hal_fdcan.o(.text.HAL_FDCAN_TT_GlobalTimeCallback)
    [Anonymous Symbol]                       0x0800eac8   Section        0  stm32h7xx_hal_fdcan.o(.text.HAL_FDCAN_TT_ScheduleSyncCallback)
    [Anonymous Symbol]                       0x0800ead8   Section        0  stm32h7xx_hal_fdcan.o(.text.HAL_FDCAN_TT_StopWatchCallback)
    [Anonymous Symbol]                       0x0800eae8   Section        0  stm32h7xx_hal_fdcan.o(.text.HAL_FDCAN_TT_TimeMarkCallback)
    [Anonymous Symbol]                       0x0800eaf8   Section        0  stm32h7xx_hal_fdcan.o(.text.HAL_FDCAN_TimeoutOccurredCallback)
    [Anonymous Symbol]                       0x0800eb00   Section        0  stm32h7xx_hal_fdcan.o(.text.HAL_FDCAN_TimestampWraparoundCallback)
    [Anonymous Symbol]                       0x0800eb08   Section        0  stm32h7xx_hal_fdcan.o(.text.HAL_FDCAN_TxBufferAbortCallback)
    [Anonymous Symbol]                       0x0800eb18   Section        0  stm32h7xx_hal_fdcan.o(.text.HAL_FDCAN_TxBufferCompleteCallback)
    [Anonymous Symbol]                       0x0800eb28   Section        0  stm32h7xx_hal_fdcan.o(.text.HAL_FDCAN_TxEventFifoCallback)
    [Anonymous Symbol]                       0x0800eb38   Section        0  stm32h7xx_hal_fdcan.o(.text.HAL_FDCAN_TxFifoEmptyCallback)
    [Anonymous Symbol]                       0x0800eb40   Section        0  stm32h7xx_hal_gpio.o(.text.HAL_GPIO_DeInit)
    [Anonymous Symbol]                       0x0800ed70   Section        0  bsp_gpio.o(.text.HAL_GPIO_EXTI_Callback)
    [Anonymous Symbol]                       0x0800edd0   Section        0  stm32h7xx_hal_gpio.o(.text.HAL_GPIO_EXTI_IRQHandler)
    [Anonymous Symbol]                       0x0800ee08   Section        0  stm32h7xx_hal_gpio.o(.text.HAL_GPIO_Init)
    [Anonymous Symbol]                       0x0800f1b0   Section        0  stm32h7xx_hal_gpio.o(.text.HAL_GPIO_ReadPin)
    [Anonymous Symbol]                       0x0800f1e0   Section        0  stm32h7xx_hal_gpio.o(.text.HAL_GPIO_WritePin)
    [Anonymous Symbol]                       0x0800f210   Section        0  stm32h7xx_hal.o(.text.HAL_GetTick)
    [Anonymous Symbol]                       0x0800f220   Section        0  stm32h7xx_hal_i2c_ex.o(.text.HAL_I2CEx_ConfigAnalogFilter)
    [Anonymous Symbol]                       0x0800f2b8   Section        0  stm32h7xx_hal_i2c_ex.o(.text.HAL_I2CEx_ConfigDigitalFilter)
    [Anonymous Symbol]                       0x0800f360   Section        0  stm32h7xx_hal_i2c.o(.text.HAL_I2C_Init)
    [Anonymous Symbol]                       0x0800f478   Section        0  i2c.o(.text.HAL_I2C_MspInit)
    [Anonymous Symbol]                       0x0800f528   Section        0  stm32h7xx_hal.o(.text.HAL_IncTick)
    [Anonymous Symbol]                       0x0800f548   Section        0  stm32h7xx_hal.o(.text.HAL_Init)
    [Anonymous Symbol]                       0x0800f5c8   Section        0  stm32h7xx_hal_timebase_tim.o(.text.HAL_InitTick)
    [Anonymous Symbol]                       0x0800f6a8   Section        0  stm32h7xx_hal_msp.o(.text.HAL_MspInit)
    [Anonymous Symbol]                       0x0800f6e0   Section        0  stm32h7xx_hal_cortex.o(.text.HAL_NVIC_DisableIRQ)
    [Anonymous Symbol]                       0x0800f6f8   Section        0  stm32h7xx_hal_cortex.o(.text.HAL_NVIC_EnableIRQ)
    [Anonymous Symbol]                       0x0800f710   Section        0  stm32h7xx_hal_cortex.o(.text.HAL_NVIC_SetPriority)
    [Anonymous Symbol]                       0x0800f740   Section        0  stm32h7xx_hal_cortex.o(.text.HAL_NVIC_SetPriorityGrouping)
    [Anonymous Symbol]                       0x0800f750   Section        0  stm32h7xx_hal_pwr_ex.o(.text.HAL_PWREx_ConfigSupply)
    [Anonymous Symbol]                       0x0800f7f8   Section        0  stm32h7xx_hal_rcc_ex.o(.text.HAL_RCCEx_GetD3PCLK1Freq)
    [Anonymous Symbol]                       0x0800f820   Section        0  stm32h7xx_hal_rcc_ex.o(.text.HAL_RCCEx_GetPLL2ClockFreq)
    [Anonymous Symbol]                       0x0800fab8   Section        0  stm32h7xx_hal_rcc_ex.o(.text.HAL_RCCEx_GetPLL3ClockFreq)
    [Anonymous Symbol]                       0x0800fd50   Section        0  stm32h7xx_hal_rcc_ex.o(.text.HAL_RCCEx_PeriphCLKConfig)
    [Anonymous Symbol]                       0x08010d40   Section        0  stm32h7xx_hal_rcc.o(.text.HAL_RCC_ClockConfig)
    [Anonymous Symbol]                       0x080111d8   Section        0  stm32h7xx_hal_rcc.o(.text.HAL_RCC_GetClockConfig)
    [Anonymous Symbol]                       0x08011260   Section        0  stm32h7xx_hal_rcc.o(.text.HAL_RCC_GetHCLKFreq)
    [Anonymous Symbol]                       0x080112b8   Section        0  stm32h7xx_hal_rcc.o(.text.HAL_RCC_GetPCLK1Freq)
    [Anonymous Symbol]                       0x080112e0   Section        0  stm32h7xx_hal_rcc.o(.text.HAL_RCC_GetPCLK2Freq)
    [Anonymous Symbol]                       0x08011308   Section        0  stm32h7xx_hal_rcc.o(.text.HAL_RCC_GetSysClockFreq)
    [Anonymous Symbol]                       0x08011608   Section        0  stm32h7xx_hal_rcc.o(.text.HAL_RCC_OscConfig)
    [Anonymous Symbol]                       0x08012028   Section        0  stm32h7xx_hal_rng.o(.text.HAL_RNG_ErrorCallback)
    [Anonymous Symbol]                       0x08012030   Section        0  stm32h7xx_hal_rng.o(.text.HAL_RNG_IRQHandler)
    [Anonymous Symbol]                       0x08012108   Section        0  stm32h7xx_hal_rng.o(.text.HAL_RNG_Init)
    [Anonymous Symbol]                       0x08012260   Section        0  rng.o(.text.HAL_RNG_MspInit)
    [Anonymous Symbol]                       0x080122d8   Section        0  stm32h7xx_hal_rng.o(.text.HAL_RNG_ReadyDataCallback)
    [Anonymous Symbol]                       0x080122e8   Section        0  stm32h7xx_hal_uart_ex.o(.text.HAL_RS485Ex_Init)
    [Anonymous Symbol]                       0x080123b8   Section        0  stm32h7xx_hal_spi.o(.text.HAL_SPI_ErrorCallback)
    [Anonymous Symbol]                       0x080123c0   Section        0  stm32h7xx_hal_spi.o(.text.HAL_SPI_IRQHandler)
    [Anonymous Symbol]                       0x08012750   Section        0  stm32h7xx_hal_spi.o(.text.HAL_SPI_Init)
    [Anonymous Symbol]                       0x080129e8   Section        0  spi.o(.text.HAL_SPI_MspInit)
    [Anonymous Symbol]                       0x08012c48   Section        0  bsp_spi.o(.text.HAL_SPI_RxCpltCallback)
    [Anonymous Symbol]                       0x08012ce8   Section        0  stm32h7xx_hal_spi.o(.text.HAL_SPI_SuspendCallback)
    [Anonymous Symbol]                       0x08012cf0   Section        0  stm32h7xx_hal_spi.o(.text.HAL_SPI_Transmit)
    [Anonymous Symbol]                       0x080130d8   Section        0  stm32h7xx_hal_spi.o(.text.HAL_SPI_TransmitReceive)
    [Anonymous Symbol]                       0x080137e0   Section        0  stm32h7xx_hal_spi.o(.text.HAL_SPI_TransmitReceive_DMA)
    [Anonymous Symbol]                       0x08013b80   Section        0  stm32h7xx_hal_spi.o(.text.HAL_SPI_TransmitReceive_IT)
    [Anonymous Symbol]                       0x08013dd0   Section        0  stm32h7xx_hal_spi.o(.text.HAL_SPI_Transmit_DMA)
    [Anonymous Symbol]                       0x08014080   Section        0  stm32h7xx_hal_spi.o(.text.HAL_SPI_Transmit_IT)
    [Anonymous Symbol]                       0x080141f0   Section        0  stm32h7xx_hal_spi.o(.text.HAL_SPI_TxCpltCallback)
    [Anonymous Symbol]                       0x080141f8   Section        0  stm32h7xx_hal_spi.o(.text.HAL_SPI_TxHalfCpltCallback)
    [Anonymous Symbol]                       0x08014200   Section        0  bsp_spi.o(.text.HAL_SPI_TxRxCpltCallback)
    [Anonymous Symbol]                       0x08014210   Section        0  stm32h7xx_hal_spi.o(.text.HAL_SPI_TxRxHalfCpltCallback)
    [Anonymous Symbol]                       0x08014218   Section        0  stm32h7xx_hal.o(.text.HAL_SYSCFG_AnalogSwitchConfig)
    [Anonymous Symbol]                       0x08014238   Section        0  stm32h7xx_hal_tim_ex.o(.text.HAL_TIMEx_Break2Callback)
    [Anonymous Symbol]                       0x08014240   Section        0  stm32h7xx_hal_tim_ex.o(.text.HAL_TIMEx_BreakCallback)
    [Anonymous Symbol]                       0x08014248   Section        0  stm32h7xx_hal_tim_ex.o(.text.HAL_TIMEx_CommutCallback)
    [Anonymous Symbol]                       0x08014250   Section        0  stm32h7xx_hal_tim_ex.o(.text.HAL_TIMEx_ConfigBreakDeadTime)
    [Anonymous Symbol]                       0x08014380   Section        0  stm32h7xx_hal_tim_ex.o(.text.HAL_TIMEx_MasterConfigSynchronization)
    [Anonymous Symbol]                       0x08014500   Section        0  stm32h7xx_hal_tim.o(.text.HAL_TIM_Base_Init)
    [Anonymous Symbol]                       0x080145a8   Section        0  stm32h7xx_hal_tim.o(.text.HAL_TIM_Base_MspInit)
    [Anonymous Symbol]                       0x080145b0   Section        0  stm32h7xx_hal_tim.o(.text.HAL_TIM_Base_Start_IT)
    [Anonymous Symbol]                       0x080146d8   Section        0  stm32h7xx_hal_tim.o(.text.HAL_TIM_IC_CaptureCallback)
    [Anonymous Symbol]                       0x080146e0   Section        0  stm32h7xx_hal_tim.o(.text.HAL_TIM_IRQHandler)
    [Anonymous Symbol]                       0x08014930   Section        0  tim.o(.text.HAL_TIM_MspPostInit)
    [Anonymous Symbol]                       0x08014a88   Section        0  stm32h7xx_hal_tim.o(.text.HAL_TIM_OC_DelayElapsedCallback)
    [Anonymous Symbol]                       0x08014a90   Section        0  stm32h7xx_hal_tim.o(.text.HAL_TIM_PWM_ConfigChannel)
    [Anonymous Symbol]                       0x08014c40   Section        0  stm32h7xx_hal_tim.o(.text.HAL_TIM_PWM_Init)
    [Anonymous Symbol]                       0x08014ce8   Section        0  tim.o(.text.HAL_TIM_PWM_MspInit)
    [Anonymous Symbol]                       0x08014db8   Section        0  bsp_pwm.o(.text.HAL_TIM_PWM_PulseFinishedCallback)
    [Anonymous Symbol]                       0x08014e58   Section        0  stm32h7xx_hal_tim.o(.text.HAL_TIM_PWM_Start)
    [Anonymous Symbol]                       0x08015100   Section        0  main.o(.text.HAL_TIM_PeriodElapsedCallback)
    [Anonymous Symbol]                       0x08015128   Section        0  stm32h7xx_hal_tim.o(.text.HAL_TIM_TriggerCallback)
    [Anonymous Symbol]                       0x08015130   Section        0  stm32h7xx_hal_uart_ex.o(.text.HAL_UARTEx_DisableFifoMode)
    [Anonymous Symbol]                       0x080151b0   Section        0  stm32h7xx_hal_uart_ex.o(.text.HAL_UARTEx_ReceiveToIdle_DMA)
    [Anonymous Symbol]                       0x08015260   Section        0  bsp_usart.o(.text.HAL_UARTEx_RxEventCallback)
    [Anonymous Symbol]                       0x08015600   Section        0  stm32h7xx_hal_uart_ex.o(.text.HAL_UARTEx_RxFifoFullCallback)
    [Anonymous Symbol]                       0x08015608   Section        0  stm32h7xx_hal_uart_ex.o(.text.HAL_UARTEx_SetRxFifoThreshold)
    [Anonymous Symbol]                       0x08015698   Section        0  stm32h7xx_hal_uart_ex.o(.text.HAL_UARTEx_SetTxFifoThreshold)
    [Anonymous Symbol]                       0x08015728   Section        0  stm32h7xx_hal_uart_ex.o(.text.HAL_UARTEx_TxFifoEmptyCallback)
    [Anonymous Symbol]                       0x08015730   Section        0  stm32h7xx_hal_uart_ex.o(.text.HAL_UARTEx_WakeupCallback)
    [Anonymous Symbol]                       0x08015738   Section        0  stm32h7xx_hal_uart.o(.text.HAL_UART_DMAStop)
    [Anonymous Symbol]                       0x08015858   Section        0  stm32h7xx_hal_uart.o(.text.HAL_UART_DeInit)
    [Anonymous Symbol]                       0x080158d8   Section        0  bsp_usart.o(.text.HAL_UART_ErrorCallback)
    [Anonymous Symbol]                       0x08015d38   Section        0  stm32h7xx_hal_uart.o(.text.HAL_UART_IRQHandler)
    [Anonymous Symbol]                       0x08016438   Section        0  stm32h7xx_hal_uart.o(.text.HAL_UART_Init)
    [Anonymous Symbol]                       0x080164e8   Section        0  usart.o(.text.HAL_UART_MspDeInit)
    [Anonymous Symbol]                       0x08016690   Section        0  usart.o(.text.HAL_UART_MspInit)
    [Anonymous Symbol]                       0x08016c18   Section        0  stm32h7xx_hal_uart.o(.text.HAL_UART_RxCpltCallback)
    [Anonymous Symbol]                       0x08016c20   Section        0  stm32h7xx_hal_uart.o(.text.HAL_UART_RxHalfCpltCallback)
    [Anonymous Symbol]                       0x08016c28   Section        0  stm32h7xx_hal_uart.o(.text.HAL_UART_Transmit)
    [Anonymous Symbol]                       0x08016d60   Section        0  stm32h7xx_hal_uart.o(.text.HAL_UART_Transmit_DMA)
    [Anonymous Symbol]                       0x08016e68   Section        0  stm32h7xx_hal_uart.o(.text.HAL_UART_Transmit_IT)
    [Anonymous Symbol]                       0x08016f98   Section        0  stm32h7xx_hal_uart.o(.text.HAL_UART_TxCpltCallback)
    [Anonymous Symbol]                       0x08016fa0   Section        0  stm32h7xx_hal_uart.o(.text.HAL_UART_TxHalfCpltCallback)
    H_K_R_Adjustment                         0x08016fa9   Thumb Code   398  kalman_filter.o(.text.H_K_R_Adjustment)
    [Anonymous Symbol]                       0x08016fa8   Section        0  kalman_filter.o(.text.H_K_R_Adjustment)
    [Anonymous Symbol]                       0x08017138   Section        0  stm32h7xx_it.o(.text.HardFault_Handler)
    IMU_QuaternionEKF_F_Linearization_P_Fading 0x08017141   Thumb Code   604  quaternionekf.o(.text.IMU_QuaternionEKF_F_Linearization_P_Fading)
    [Anonymous Symbol]                       0x08017140   Section        0  quaternionekf.o(.text.IMU_QuaternionEKF_F_Linearization_P_Fading)
    [Anonymous Symbol]                       0x080173a0   Section        0  quaternionekf.o(.text.IMU_QuaternionEKF_Init)
    IMU_QuaternionEKF_Observe                0x080174f1   Thumb Code    72  quaternionekf.o(.text.IMU_QuaternionEKF_Observe)
    [Anonymous Symbol]                       0x080174f0   Section        0  quaternionekf.o(.text.IMU_QuaternionEKF_Observe)
    IMU_QuaternionEKF_SetH                   0x08017539   Thumb Code   354  quaternionekf.o(.text.IMU_QuaternionEKF_SetH)
    [Anonymous Symbol]                       0x08017538   Section        0  quaternionekf.o(.text.IMU_QuaternionEKF_SetH)
    [Anonymous Symbol]                       0x080176a0   Section        0  quaternionekf.o(.text.IMU_QuaternionEKF_Update)
    IMU_QuaternionEKF_xhatUpdate             0x08017c81   Thumb Code  1612  quaternionekf.o(.text.IMU_QuaternionEKF_xhatUpdate)
    [Anonymous Symbol]                       0x08017c80   Section        0  quaternionekf.o(.text.IMU_QuaternionEKF_xhatUpdate)
    [Anonymous Symbol]                       0x080182e0   Section        0  ins.o(.text.INS_Calculate)
    [Anonymous Symbol]                       0x08018700   Section        0  ins.o(.text.INS_Data_Update)
    [Anonymous Symbol]                       0x080187e0   Section        0  ins.o(.text.INS_Init)
    INS_Task                                 0x08018841   Thumb Code    80  ins_task.o(.text.INS_Task)
    [Anonymous Symbol]                       0x08018840   Section        0  ins_task.o(.text.INS_Task)
    [Anonymous Symbol]                       0x08018890   Section        0  ins_task.o(.text.INS_Task_Init)
    [Anonymous Symbol]                       0x08018918   Section        0  vmc.o(.text.Inverse_Kinematics)
    [Anonymous Symbol]                       0x08018b70   Section        0  user_lib.o(.text.Judge_IF_NAN)
    [Anonymous Symbol]                       0x08018ba8   Section        0  kalman_filter.o(.text.Kalman_Filter_Init)
    [Anonymous Symbol]                       0x080191a0   Section        0  kalman_filter.o(.text.Kalman_Filter_Measure)
    [Anonymous Symbol]                       0x08019208   Section        0  kalman_filter.o(.text.Kalman_Filter_P_Update)
    [Anonymous Symbol]                       0x08019288   Section        0  kalman_filter.o(.text.Kalman_Filter_PminusUpdate)
    [Anonymous Symbol]                       0x08019308   Section        0  kalman_filter.o(.text.Kalman_Filter_SetK)
    [Anonymous Symbol]                       0x08019408   Section        0  kalman_filter.o(.text.Kalman_Filter_Update)
    [Anonymous Symbol]                       0x08019598   Section        0  kalman_filter.o(.text.Kalman_Filter_xhatMinusUpdate)
    [Anonymous Symbol]                       0x08019640   Section        0  kalman_filter.o(.text.Kalman_Filter_xhatUpdate)
    [Anonymous Symbol]                       0x080196f0   Section        0  kalman_one_filter.o(.text.Kalman_One_Filter)
    [Anonymous Symbol]                       0x08019788   Section        0  kalman_one_filter.o(.text.Kalman_One_Init)
    [Anonymous Symbol]                       0x080197c0   Section        0  vmc.o(.text.LQR_K_Calc)
    [Anonymous Symbol]                       0x08019800   Section        0  vmc.o(.text.Leg_Force_Calc)
    Leg_Saturate_Torque                      0x08019969   Thumb Code    80  balance_chassis.o(.text.Leg_Saturate_Torque)
    [Anonymous Symbol]                       0x08019968   Section        0  balance_chassis.o(.text.Leg_Saturate_Torque)
    [Anonymous Symbol]                       0x080199b8   Section        0  dma.o(.text.MX_DMA_Init)
    [Anonymous Symbol]                       0x08019a40   Section        0  fdcan.o(.text.MX_FDCAN1_Init)
    [Anonymous Symbol]                       0x08019ac8   Section        0  fdcan.o(.text.MX_FDCAN2_Init)
    [Anonymous Symbol]                       0x08019b50   Section        0  fdcan.o(.text.MX_FDCAN3_Init)
    [Anonymous Symbol]                       0x08019bd0   Section        0  freertos.o(.text.MX_FREERTOS_Init)
    [Anonymous Symbol]                       0x08019bf8   Section        0  gpio.o(.text.MX_GPIO_Init)
    [Anonymous Symbol]                       0x08019d30   Section        0  i2c.o(.text.MX_I2C2_Init)
    [Anonymous Symbol]                       0x08019da8   Section        0  rng.o(.text.MX_RNG_Init)
    [Anonymous Symbol]                       0x08019dd0   Section        0  spi.o(.text.MX_SPI2_Init)
    [Anonymous Symbol]                       0x08019e48   Section        0  spi.o(.text.MX_SPI6_Init)
    [Anonymous Symbol]                       0x08019ec0   Section        0  tim.o(.text.MX_TIM12_Init)
    [Anonymous Symbol]                       0x08019f68   Section        0  tim.o(.text.MX_TIM1_Init)
    [Anonymous Symbol]                       0x0801a070   Section        0  tim.o(.text.MX_TIM2_Init)
    [Anonymous Symbol]                       0x0801a128   Section        0  tim.o(.text.MX_TIM3_Init)
    [Anonymous Symbol]                       0x0801a1c8   Section        0  usart.o(.text.MX_UART5_Init)
    [Anonymous Symbol]                       0x0801a268   Section        0  usart.o(.text.MX_UART7_Init)
    [Anonymous Symbol]                       0x0801a2f8   Section        0  usart.o(.text.MX_USART10_UART_Init)
    [Anonymous Symbol]                       0x0801a388   Section        0  usart.o(.text.MX_USART1_UART_Init)
    [Anonymous Symbol]                       0x0801a418   Section        0  usart.o(.text.MX_USART2_UART_Init)
    [Anonymous Symbol]                       0x0801a4b0   Section        0  usart.o(.text.MX_USART3_UART_Init)
    [Anonymous Symbol]                       0x0801a548   Section        0  stm32h7xx_it.o(.text.MemManage_Handler)
    Mode_handle                              0x0801a551   Thumb Code   160  buzzer.o(.text.Mode_handle)
    [Anonymous Symbol]                       0x0801a550   Section        0  buzzer.o(.text.Mode_handle)
    Motor_Sender_Grouping                    0x0801a5f1   Thumb Code   736  dji_motor.o(.text.Motor_Sender_Grouping)
    [Anonymous Symbol]                       0x0801a5f0   Section        0  dji_motor.o(.text.Motor_Sender_Grouping)
    [Anonymous Symbol]                       0x0801a8d0   Section        0  stm32h7xx_it.o(.text.NMI_Handler)
    NVIC_EncodePriority                      0x0801a8d9   Thumb Code   108  stm32h7xx_hal_cortex.o(.text.NVIC_EncodePriority)
    [Anonymous Symbol]                       0x0801a8d8   Section        0  stm32h7xx_hal_cortex.o(.text.NVIC_EncodePriority)
    [Anonymous Symbol]                       0x0801a948   Section        0  lms.o(.text.Nlms_Filter)
    [Anonymous Symbol]                       0x0801ab90   Section        0  lms.o(.text.Nlms_Init)
    [Anonymous Symbol]                       0x0801ac70   Section        0  user_lib.o(.text.Norm3d)
    [Anonymous Symbol]                       0x0801acd8   Section        0  user_lib.o(.text.NormOf3d)
    NotePlay                                 0x0801ad01   Thumb Code   340  buzzer.o(.text.NotePlay)
    [Anonymous Symbol]                       0x0801ad00   Section        0  buzzer.o(.text.NotePlay)
    Note_handle                              0x0801ae61   Thumb Code   308  buzzer.o(.text.Note_handle)
    [Anonymous Symbol]                       0x0801ae60   Section        0  buzzer.o(.text.Note_handle)
    [Anonymous Symbol]                       0x0801af98   Section        0  pid.o(.text.PID_Increment)
    [Anonymous Symbol]                       0x0801b0f0   Section        0  pid.o(.text.PID_Init)
    [Anonymous Symbol]                       0x0801b150   Section        0  pid.o(.text.PID_Position)
    [Anonymous Symbol]                       0x0801b290   Section        0  bsp_pwm.o(.text.PWM_Register)
    PWM_Select_Tclk                          0x0801b341   Thumb Code   200  bsp_pwm.o(.text.PWM_Select_Tclk)
    [Anonymous Symbol]                       0x0801b340   Section        0  bsp_pwm.o(.text.PWM_Select_Tclk)
    [Anonymous Symbol]                       0x0801b408   Section        0  bsp_pwm.o(.text.PWM_Set_DutyRatio)
    [Anonymous Symbol]                       0x0801b568   Section        0  bsp_pwm.o(.text.PWM_Set_Period)
    [Anonymous Symbol]                       0x0801b5d0   Section        0  port.o(.text.PendSV_Handler)
    pxCurrentTCBConst                        0x0801b630   Number         0  port.o(.text.PendSV_Handler)
    Procotol_Task                            0x0801b639   Thumb Code    56  procotol_task.o(.text.Procotol_Task)
    [Anonymous Symbol]                       0x0801b638   Section        0  procotol_task.o(.text.Procotol_Task)
    [Anonymous Symbol]                       0x0801b670   Section        0  procotol_task.o(.text.Procotol_Task_Init)
    [Anonymous Symbol]                       0x0801b6f8   Section        0  message_center.o(.text.Publisher_Register)
    RCCEx_PLL2_Config                        0x0801b791   Thumb Code   458  stm32h7xx_hal_rcc_ex.o(.text.RCCEx_PLL2_Config)
    [Anonymous Symbol]                       0x0801b790   Section        0  stm32h7xx_hal_rcc_ex.o(.text.RCCEx_PLL2_Config)
    RCCEx_PLL3_Config                        0x0801b961   Thumb Code   458  stm32h7xx_hal_rcc_ex.o(.text.RCCEx_PLL3_Config)
    [Anonymous Symbol]                       0x0801b960   Section        0  stm32h7xx_hal_rcc_ex.o(.text.RCCEx_PLL3_Config)
    [Anonymous Symbol]                       0x0801bb30   Section        0  procotol.o(.text.RC_Receive_Control)
    [Anonymous Symbol]                       0x0801bb38   Section        0  stm32h7xx_it.o(.text.RNG_IRQHandler)
    [Anonymous Symbol]                       0x0801bb48   Section        0  robot_frame_init.o(.text.Robot_Frame_Init)
    [Anonymous Symbol]                       0x0801bb58   Section        0  stm32h7xx_it.o(.text.SPI2_IRQHandler)
    SPI_CloseTransfer                        0x0801bb69   Thumb Code   278  stm32h7xx_hal_spi.o(.text.SPI_CloseTransfer)
    [Anonymous Symbol]                       0x0801bb68   Section        0  stm32h7xx_hal_spi.o(.text.SPI_CloseTransfer)
    SPI_DMAAbortOnError                      0x0801bc81   Thumb Code    44  stm32h7xx_hal_spi.o(.text.SPI_DMAAbortOnError)
    [Anonymous Symbol]                       0x0801bc80   Section        0  stm32h7xx_hal_spi.o(.text.SPI_DMAAbortOnError)
    SPI_DMAError                             0x0801bcb1   Thumb Code    64  stm32h7xx_hal_spi.o(.text.SPI_DMAError)
    [Anonymous Symbol]                       0x0801bcb0   Section        0  stm32h7xx_hal_spi.o(.text.SPI_DMAError)
    SPI_DMAHalfTransmitCplt                  0x0801bcf1   Thumb Code    22  stm32h7xx_hal_spi.o(.text.SPI_DMAHalfTransmitCplt)
    [Anonymous Symbol]                       0x0801bcf0   Section        0  stm32h7xx_hal_spi.o(.text.SPI_DMAHalfTransmitCplt)
    SPI_DMAHalfTransmitReceiveCplt           0x0801bd09   Thumb Code    22  stm32h7xx_hal_spi.o(.text.SPI_DMAHalfTransmitReceiveCplt)
    [Anonymous Symbol]                       0x0801bd08   Section        0  stm32h7xx_hal_spi.o(.text.SPI_DMAHalfTransmitReceiveCplt)
    SPI_DMATransmitCplt                      0x0801bd21   Thumb Code    66  stm32h7xx_hal_spi.o(.text.SPI_DMATransmitCplt)
    [Anonymous Symbol]                       0x0801bd20   Section        0  stm32h7xx_hal_spi.o(.text.SPI_DMATransmitCplt)
    SPI_DMATransmitReceiveCplt               0x0801bd69   Thumb Code    66  stm32h7xx_hal_spi.o(.text.SPI_DMATransmitReceiveCplt)
    [Anonymous Symbol]                       0x0801bd68   Section        0  stm32h7xx_hal_spi.o(.text.SPI_DMATransmitReceiveCplt)
    SPI_GetPacketSize                        0x0801bdb1   Thumb Code    42  stm32h7xx_hal_spi.o(.text.SPI_GetPacketSize)
    [Anonymous Symbol]                       0x0801bdb0   Section        0  stm32h7xx_hal_spi.o(.text.SPI_GetPacketSize)
    [Anonymous Symbol]                       0x0801bde0   Section        0  bsp_spi.o(.text.SPI_Register)
    SPI_RxISR_16BIT                          0x0801be69   Thumb Code    70  stm32h7xx_hal_spi.o(.text.SPI_RxISR_16BIT)
    [Anonymous Symbol]                       0x0801be68   Section        0  stm32h7xx_hal_spi.o(.text.SPI_RxISR_16BIT)
    SPI_RxISR_32BIT                          0x0801beb1   Thumb Code    64  stm32h7xx_hal_spi.o(.text.SPI_RxISR_32BIT)
    [Anonymous Symbol]                       0x0801beb0   Section        0  stm32h7xx_hal_spi.o(.text.SPI_RxISR_32BIT)
    SPI_RxISR_8BIT                           0x0801bef1   Thumb Code    66  stm32h7xx_hal_spi.o(.text.SPI_RxISR_8BIT)
    [Anonymous Symbol]                       0x0801bef0   Section        0  stm32h7xx_hal_spi.o(.text.SPI_RxISR_8BIT)
    [Anonymous Symbol]                       0x0801bf38   Section        0  bsp_spi.o(.text.SPI_Set_Mode)
    [Anonymous Symbol]                       0x0801bf80   Section        0  bsp_spi.o(.text.SPI_Transmit)
    [Anonymous Symbol]                       0x0801c000   Section        0  bsp_spi.o(.text.SPI_Transmit_Receive)
    SPI_TxISR_16BIT                          0x0801c0b1   Thumb Code    70  stm32h7xx_hal_spi.o(.text.SPI_TxISR_16BIT)
    [Anonymous Symbol]                       0x0801c0b0   Section        0  stm32h7xx_hal_spi.o(.text.SPI_TxISR_16BIT)
    SPI_TxISR_32BIT                          0x0801c0f9   Thumb Code    62  stm32h7xx_hal_spi.o(.text.SPI_TxISR_32BIT)
    [Anonymous Symbol]                       0x0801c0f8   Section        0  stm32h7xx_hal_spi.o(.text.SPI_TxISR_32BIT)
    SPI_TxISR_8BIT                           0x0801c139   Thumb Code    64  stm32h7xx_hal_spi.o(.text.SPI_TxISR_8BIT)
    [Anonymous Symbol]                       0x0801c138   Section        0  stm32h7xx_hal_spi.o(.text.SPI_TxISR_8BIT)
    SPI_WaitOnFlagUntilTimeout               0x0801c179   Thumb Code   104  stm32h7xx_hal_spi.o(.text.SPI_WaitOnFlagUntilTimeout)
    [Anonymous Symbol]                       0x0801c178   Section        0  stm32h7xx_hal_spi.o(.text.SPI_WaitOnFlagUntilTimeout)
    [Anonymous Symbol]                       0x0801c1e0   Section        0  port.o(.text.SVC_Handler)
    pxCurrentTCBConst2                       0x0801c200   Number         0  port.o(.text.SVC_Handler)
    SVC_Setup                                0x0801c209   Thumb Code    14  cmsis_os2.o(.text.SVC_Setup)
    [Anonymous Symbol]                       0x0801c208   Section        0  cmsis_os2.o(.text.SVC_Setup)
    [Anonymous Symbol]                       0x0801c218   Section        0  shoot_task.o(.text.Shoot_Console)
    [Anonymous Symbol]                       0x0801c220   Section        0  shoot_task.o(.text.Shoot_Handle_Exception)
    [Anonymous Symbol]                       0x0801c228   Section        0  shoot_task.o(.text.Shoot_Observer)
    [Anonymous Symbol]                       0x0801c230   Section        0  shoot_task.o(.text.Shoot_Publish)
    [Anonymous Symbol]                       0x0801c238   Section        0  shoot_task.o(.text.Shoot_Reference)
    [Anonymous Symbol]                       0x0801c240   Section        0  shoot_task.o(.text.Shoot_Send_Cmd)
    [Anonymous Symbol]                       0x0801c248   Section        0  shoot_task.o(.text.Shoot_Set_Mode)
    Shoot_Task                               0x0801c251   Thumb Code    98  shoot_task.o(.text.Shoot_Task)
    [Anonymous Symbol]                       0x0801c250   Section        0  shoot_task.o(.text.Shoot_Task)
    [Anonymous Symbol]                       0x0801c2b8   Section        0  shoot_task.o(.text.Shoot_Task_Init)
    Slip_Detect                              0x0801c341   Thumb Code   796  balance_chassis.o(.text.Slip_Detect)
    [Anonymous Symbol]                       0x0801c340   Section        0  balance_chassis.o(.text.Slip_Detect)
    [Anonymous Symbol]                       0x0801c668   Section        0  user_lib.o(.text.Sqrt)
    [Anonymous Symbol]                       0x0801c728   Section        0  freertos.o(.text.StartDefaultTask)
    [Anonymous Symbol]                       0x0801c900   Section        0  message_center.o(.text.Subscriber_Register)
    [Anonymous Symbol]                       0x0801c998   Section        0  defense_center.o(.text.Supervisor_Register)
    [Anonymous Symbol]                       0x0801c9f8   Section        0  defense_center.o(.text.Supervisor_Reload)
    [Anonymous Symbol]                       0x0801ca08   Section        0  cmsis_os2.o(.text.SysTick_Handler)
    [Anonymous Symbol]                       0x0801ca28   Section        0  main.o(.text.SystemClock_Config)
    [Anonymous Symbol]                       0x0801caf8   Section        0  system_stm32h7xx.o(.text.SystemInit)
    [Anonymous Symbol]                       0x0801cc60   Section        0  stm32h7xx_it.o(.text.TIM7_IRQHandler)
    [Anonymous Symbol]                       0x0801cc70   Section        0  stm32h7xx_hal_tim.o(.text.TIM_Base_SetConfig)
    [Anonymous Symbol]                       0x0801ce38   Section        0  stm32h7xx_hal_tim.o(.text.TIM_CCxChannelCmd)
    TIM_OC1_SetConfig                        0x0801ce71   Thumb Code   336  stm32h7xx_hal_tim.o(.text.TIM_OC1_SetConfig)
    [Anonymous Symbol]                       0x0801ce70   Section        0  stm32h7xx_hal_tim.o(.text.TIM_OC1_SetConfig)
    [Anonymous Symbol]                       0x0801cfc0   Section        0  stm32h7xx_hal_tim.o(.text.TIM_OC2_SetConfig)
    TIM_OC3_SetConfig                        0x0801d131   Thumb Code   362  stm32h7xx_hal_tim.o(.text.TIM_OC3_SetConfig)
    [Anonymous Symbol]                       0x0801d130   Section        0  stm32h7xx_hal_tim.o(.text.TIM_OC3_SetConfig)
    TIM_OC4_SetConfig                        0x0801d2a1   Thumb Code   218  stm32h7xx_hal_tim.o(.text.TIM_OC4_SetConfig)
    [Anonymous Symbol]                       0x0801d2a0   Section        0  stm32h7xx_hal_tim.o(.text.TIM_OC4_SetConfig)
    TIM_OC5_SetConfig                        0x0801d381   Thumb Code   208  stm32h7xx_hal_tim.o(.text.TIM_OC5_SetConfig)
    [Anonymous Symbol]                       0x0801d380   Section        0  stm32h7xx_hal_tim.o(.text.TIM_OC5_SetConfig)
    TIM_OC6_SetConfig                        0x0801d451   Thumb Code   210  stm32h7xx_hal_tim.o(.text.TIM_OC6_SetConfig)
    [Anonymous Symbol]                       0x0801d450   Section        0  stm32h7xx_hal_tim.o(.text.TIM_OC6_SetConfig)
    [Anonymous Symbol]                       0x0801d528   Section        0  stm32h7xx_it.o(.text.UART5_IRQHandler)
    [Anonymous Symbol]                       0x0801d538   Section        0  stm32h7xx_it.o(.text.UART7_IRQHandler)
    UARTEx_SetNbDataToProcess                0x0801d549   Thumb Code   134  stm32h7xx_hal_uart_ex.o(.text.UARTEx_SetNbDataToProcess)
    [Anonymous Symbol]                       0x0801d548   Section        0  stm32h7xx_hal_uart_ex.o(.text.UARTEx_SetNbDataToProcess)
    [Anonymous Symbol]                       0x0801d5d0   Section        0  stm32h7xx_hal_uart.o(.text.UART_AdvFeatureConfig)
    [Anonymous Symbol]                       0x0801d718   Section        0  stm32h7xx_hal_uart.o(.text.UART_CheckIdleState)
    UART_DMAAbortOnError                     0x0801d861   Thumb Code    30  stm32h7xx_hal_uart.o(.text.UART_DMAAbortOnError)
    [Anonymous Symbol]                       0x0801d860   Section        0  stm32h7xx_hal_uart.o(.text.UART_DMAAbortOnError)
    UART_DMAError                            0x0801d881   Thumb Code   128  stm32h7xx_hal_uart.o(.text.UART_DMAError)
    [Anonymous Symbol]                       0x0801d880   Section        0  stm32h7xx_hal_uart.o(.text.UART_DMAError)
    UART_DMAReceiveCplt                      0x0801d901   Thumb Code   246  stm32h7xx_hal_uart.o(.text.UART_DMAReceiveCplt)
    [Anonymous Symbol]                       0x0801d900   Section        0  stm32h7xx_hal_uart.o(.text.UART_DMAReceiveCplt)
    UART_DMARxHalfCplt                       0x0801d9f9   Thumb Code    54  stm32h7xx_hal_uart.o(.text.UART_DMARxHalfCplt)
    [Anonymous Symbol]                       0x0801d9f8   Section        0  stm32h7xx_hal_uart.o(.text.UART_DMARxHalfCplt)
    UART_DMATransmitCplt                     0x0801da31   Thumb Code   122  stm32h7xx_hal_uart.o(.text.UART_DMATransmitCplt)
    [Anonymous Symbol]                       0x0801da30   Section        0  stm32h7xx_hal_uart.o(.text.UART_DMATransmitCplt)
    UART_DMATxHalfCplt                       0x0801dab1   Thumb Code    22  stm32h7xx_hal_uart.o(.text.UART_DMATxHalfCplt)
    [Anonymous Symbol]                       0x0801dab0   Section        0  stm32h7xx_hal_uart.o(.text.UART_DMATxHalfCplt)
    UART_EndRxTransfer                       0x0801dac9   Thumb Code   158  stm32h7xx_hal_uart.o(.text.UART_EndRxTransfer)
    [Anonymous Symbol]                       0x0801dac8   Section        0  stm32h7xx_hal_uart.o(.text.UART_EndRxTransfer)
    UART_EndTransmit_IT                      0x0801db69   Thumb Code    68  stm32h7xx_hal_uart.o(.text.UART_EndTransmit_IT)
    [Anonymous Symbol]                       0x0801db68   Section        0  stm32h7xx_hal_uart.o(.text.UART_EndTransmit_IT)
    UART_EndTxTransfer                       0x0801dbb1   Thumb Code    92  stm32h7xx_hal_uart.o(.text.UART_EndTxTransfer)
    [Anonymous Symbol]                       0x0801dbb0   Section        0  stm32h7xx_hal_uart.o(.text.UART_EndTxTransfer)
    [Anonymous Symbol]                       0x0801dc10   Section        0  stm32h7xx_hal_uart.o(.text.UART_SetConfig)
    [Anonymous Symbol]                       0x0801e660   Section        0  stm32h7xx_hal_uart.o(.text.UART_Start_Receive_DMA)
    UART_TxISR_16BIT                         0x0801e791   Thumb Code   152  stm32h7xx_hal_uart.o(.text.UART_TxISR_16BIT)
    [Anonymous Symbol]                       0x0801e790   Section        0  stm32h7xx_hal_uart.o(.text.UART_TxISR_16BIT)
    UART_TxISR_16BIT_FIFOEN                  0x0801e829   Thumb Code   206  stm32h7xx_hal_uart.o(.text.UART_TxISR_16BIT_FIFOEN)
    [Anonymous Symbol]                       0x0801e828   Section        0  stm32h7xx_hal_uart.o(.text.UART_TxISR_16BIT_FIFOEN)
    UART_TxISR_8BIT                          0x0801e8f9   Thumb Code   142  stm32h7xx_hal_uart.o(.text.UART_TxISR_8BIT)
    [Anonymous Symbol]                       0x0801e8f8   Section        0  stm32h7xx_hal_uart.o(.text.UART_TxISR_8BIT)
    UART_TxISR_8BIT_FIFOEN                   0x0801e989   Thumb Code   196  stm32h7xx_hal_uart.o(.text.UART_TxISR_8BIT_FIFOEN)
    [Anonymous Symbol]                       0x0801e988   Section        0  stm32h7xx_hal_uart.o(.text.UART_TxISR_8BIT_FIFOEN)
    [Anonymous Symbol]                       0x0801ea50   Section        0  stm32h7xx_hal_uart.o(.text.UART_WaitOnFlagUntilTimeout)
    [Anonymous Symbol]                       0x0801eb60   Section        0  stm32h7xx_it.o(.text.USART10_IRQHandler)
    [Anonymous Symbol]                       0x0801eb70   Section        0  stm32h7xx_it.o(.text.USART1_IRQHandler)
    [Anonymous Symbol]                       0x0801eb80   Section        0  stm32h7xx_it.o(.text.USART2_IRQHandler)
    [Anonymous Symbol]                       0x0801eb90   Section        0  stm32h7xx_it.o(.text.USART3_IRQHandler)
    [Anonymous Symbol]                       0x0801eba0   Section        0  bsp_usart.o(.text.USART_Register)
    [Anonymous Symbol]                       0x0801ec70   Section        0  bsp_usart.o(.text.USART_Send)
    [Anonymous Symbol]                       0x0801ece0   Section        0  bsp_usart.o(.text.USART_Service_Init)
    [Anonymous Symbol]                       0x0801eec8   Section        0  stm32h7xx_it.o(.text.UsageFault_Handler)
    [Anonymous Symbol]                       0x0801eed0   Section        0  vmc.o(.text.VMC_Calc_Base_Data)
    __arm_cp.1_6                             0x0801ef20   Number         4  vmc.o(.text.VMC_Calc_Base_Data)
    [Anonymous Symbol]                       0x0801f570   Section        0  vmc.o(.text.VMC_Calc_T_Joint)
    [Anonymous Symbol]                       0x0801f798   Section        0  vmc.o(.text.VMC_FN_Ground_Detection)
    [Anonymous Symbol]                       0x0801f850   Section        0  vmc.o(.text.VMC_Init)
    [Anonymous Symbol]                       0x0801f8a0   Section        0  procotol.o(.text.VOFA_Display_IMU)
    [Anonymous Symbol]                       0x0801f960   Section        0  vofa.o(.text.VOFA_Register)
    [Anonymous Symbol]                       0x0801f990   Section        0  vofa.o(.text.VOFA_Send_Data)
    [Anonymous Symbol]                       0x0801f9e0   Section        0  vofa.o(.text.VOFA_Transmit)
    Value_Limit                              0x0801fa11   Thumb Code    80  pid.o(.text.Value_Limit)
    [Anonymous Symbol]                       0x0801fa10   Section        0  pid.o(.text.Value_Limit)
    [Anonymous Symbol]                       0x0801fa60   Section        0  wfly_control.o(.text.WFLY_SBUS_Register)
    WFLY_SBUS_Rx_Callback                    0x0801faa9   Thumb Code    20  wfly_control.o(.text.WFLY_SBUS_Rx_Callback)
    [Anonymous Symbol]                       0x0801faa8   Section        0  wfly_control.o(.text.WFLY_SBUS_Rx_Callback)
    [Anonymous Symbol]                       0x0801fac0   Section        0  ws2812.o(.text.WS2812_Control)
    [Anonymous Symbol]                       0x0801fb48   Section        0  ws2812.o(.text.WS2812_Register)
    __ARM_isnan                              0x0801fb99   Thumb Code    46  user_lib.o(.text.__ARM_isnan)
    [Anonymous Symbol]                       0x0801fb98   Section        0  user_lib.o(.text.__ARM_isnan)
    __NVIC_DisableIRQ                        0x0801fbc9   Thumb Code    56  stm32h7xx_hal_cortex.o(.text.__NVIC_DisableIRQ)
    [Anonymous Symbol]                       0x0801fbc8   Section        0  stm32h7xx_hal_cortex.o(.text.__NVIC_DisableIRQ)
    __NVIC_EnableIRQ                         0x0801fc01   Thumb Code    48  stm32h7xx_hal_cortex.o(.text.__NVIC_EnableIRQ)
    [Anonymous Symbol]                       0x0801fc00   Section        0  stm32h7xx_hal_cortex.o(.text.__NVIC_EnableIRQ)
    __NVIC_GetPriorityGrouping               0x0801fc31   Thumb Code    16  stm32h7xx_hal_cortex.o(.text.__NVIC_GetPriorityGrouping)
    [Anonymous Symbol]                       0x0801fc30   Section        0  stm32h7xx_hal_cortex.o(.text.__NVIC_GetPriorityGrouping)
    __NVIC_SetPriority                       0x0801fc41   Thumb Code    66  stm32h7xx_hal_cortex.o(.text.__NVIC_SetPriority)
    [Anonymous Symbol]                       0x0801fc40   Section        0  stm32h7xx_hal_cortex.o(.text.__NVIC_SetPriority)
    __NVIC_SetPriority                       0x0801fc89   Thumb Code    66  cmsis_os2.o(.text.__NVIC_SetPriority)
    [Anonymous Symbol]                       0x0801fc88   Section        0  cmsis_os2.o(.text.__NVIC_SetPriority)
    __NVIC_SetPriorityGrouping               0x0801fcd1   Thumb Code    60  stm32h7xx_hal_cortex.o(.text.__NVIC_SetPriorityGrouping)
    [Anonymous Symbol]                       0x0801fcd0   Section        0  stm32h7xx_hal_cortex.o(.text.__NVIC_SetPriorityGrouping)
    [Anonymous Symbol]                       0x0801fd0c   Section        0  arm_cos_f32.o(.text.arm_cos_f32)
    [Anonymous Symbol]                       0x0801fd9c   Section        0  arm_mat_add_f32.o(.text.arm_mat_add_f32)
    [Anonymous Symbol]                       0x0801fe5a   Section        0  arm_mat_init_f32.o(.text.arm_mat_init_f32)
    [Anonymous Symbol]                       0x0801fe64   Section        0  arm_mat_inverse_f32.o(.text.arm_mat_inverse_f32)
    [Anonymous Symbol]                       0x08020130   Section        0  arm_mat_mult_f32.o(.text.arm_mat_mult_f32)
    [Anonymous Symbol]                       0x08020260   Section        0  arm_mat_sub_f32.o(.text.arm_mat_sub_f32)
    [Anonymous Symbol]                       0x08020320   Section        0  arm_mat_trans_f32.o(.text.arm_mat_trans_f32)
    [Anonymous Symbol]                       0x080203d4   Section        0  arm_sin_f32.o(.text.arm_sin_f32)
    [Anonymous Symbol]                       0x08020460   Section        0  user_lib.o(.text.float_constrain)
    [Anonymous Symbol]                       0x080204b0   Section        0  user_lib.o(.text.float_deadband)
    [Anonymous Symbol]                       0x080204f8   Section        0  dm_motor.o(.text.float_to_uint)
    invSqrt                                  0x08020551   Thumb Code    86  quaternionekf.o(.text.invSqrt)
    [Anonymous Symbol]                       0x08020550   Section        0  quaternionekf.o(.text.invSqrt)
    [Anonymous Symbol]                       0x080205a8   Section        0  main.o(.text.main)
    next_char                                0x08020619   Thumb Code    94  buzzer.o(.text.next_char)
    [Anonymous Symbol]                       0x08020618   Section        0  buzzer.o(.text.next_char)
    next_dots                                0x08020679   Thumb Code    50  buzzer.o(.text.next_dots)
    [Anonymous Symbol]                       0x08020678   Section        0  buzzer.o(.text.next_dots)
    next_number                              0x080206b1   Thumb Code    88  buzzer.o(.text.next_number)
    [Anonymous Symbol]                       0x080206b0   Section        0  buzzer.o(.text.next_number)
    [Anonymous Symbol]                       0x08020708   Section        0  cmsis_os2.o(.text.osDelay)
    [Anonymous Symbol]                       0x08020740   Section        0  cmsis_os2.o(.text.osDelayUntil)
    [Anonymous Symbol]                       0x08020798   Section        0  cmsis_os2.o(.text.osKernelGetTickCount)
    [Anonymous Symbol]                       0x080207c0   Section        0  cmsis_os2.o(.text.osKernelInitialize)
    [Anonymous Symbol]                       0x08020808   Section        0  cmsis_os2.o(.text.osKernelStart)
    [Anonymous Symbol]                       0x08020860   Section        0  cmsis_os2.o(.text.osThreadFlagsSet)
    [Anonymous Symbol]                       0x08020908   Section        0  cmsis_os2.o(.text.osThreadNew)
    [Anonymous Symbol]                       0x08020a68   Section        0  cmsis_os2.o(.text.osThreadResume)
    [Anonymous Symbol]                       0x08020aa8   Section        0  cmsis_os2.o(.text.osThreadSuspend)
    prvAddCurrentTaskToDelayedList           0x08020ae9   Thumb Code   212  tasks.o(.text.prvAddCurrentTaskToDelayedList)
    [Anonymous Symbol]                       0x08020ae8   Section        0  tasks.o(.text.prvAddCurrentTaskToDelayedList)
    prvAddNewTaskToReadyList                 0x08020bc1   Thumb Code   290  tasks.o(.text.prvAddNewTaskToReadyList)
    [Anonymous Symbol]                       0x08020bc0   Section        0  tasks.o(.text.prvAddNewTaskToReadyList)
    prvCheckForValidListAndQueue             0x08020ce9   Thumb Code   162  timers.o(.text.prvCheckForValidListAndQueue)
    [Anonymous Symbol]                       0x08020ce8   Section        0  timers.o(.text.prvCheckForValidListAndQueue)
    prvCheckTasksWaitingTermination          0x08020d91   Thumb Code    90  tasks.o(.text.prvCheckTasksWaitingTermination)
    [Anonymous Symbol]                       0x08020d90   Section        0  tasks.o(.text.prvCheckTasksWaitingTermination)
    prvCopyDataFromQueue                     0x08020df1   Thumb Code    66  queue.o(.text.prvCopyDataFromQueue)
    [Anonymous Symbol]                       0x08020df0   Section        0  queue.o(.text.prvCopyDataFromQueue)
    prvCopyDataToQueue                       0x08020e39   Thumb Code   204  queue.o(.text.prvCopyDataToQueue)
    [Anonymous Symbol]                       0x08020e38   Section        0  queue.o(.text.prvCopyDataToQueue)
    prvDeleteTCB                             0x08020f09   Thumb Code    94  tasks.o(.text.prvDeleteTCB)
    [Anonymous Symbol]                       0x08020f08   Section        0  tasks.o(.text.prvDeleteTCB)
    prvGetNextExpireTime                     0x08020f69   Thumb Code    64  timers.o(.text.prvGetNextExpireTime)
    [Anonymous Symbol]                       0x08020f68   Section        0  timers.o(.text.prvGetNextExpireTime)
    prvHeapInit                              0x08020fa9   Thumb Code   188  heap_4.o(.text.prvHeapInit)
    [Anonymous Symbol]                       0x08020fa8   Section        0  heap_4.o(.text.prvHeapInit)
    prvIdleTask                              0x08021069   Thumb Code    56  tasks.o(.text.prvIdleTask)
    [Anonymous Symbol]                       0x08021068   Section        0  tasks.o(.text.prvIdleTask)
    prvInitialiseNewQueue                    0x080210a1   Thumb Code    72  queue.o(.text.prvInitialiseNewQueue)
    [Anonymous Symbol]                       0x080210a0   Section        0  queue.o(.text.prvInitialiseNewQueue)
    prvInitialiseNewTask                     0x080210e9   Thumb Code   290  tasks.o(.text.prvInitialiseNewTask)
    [Anonymous Symbol]                       0x080210e8   Section        0  tasks.o(.text.prvInitialiseNewTask)
    prvInitialiseTaskLists                   0x08021211   Thumb Code   142  tasks.o(.text.prvInitialiseTaskLists)
    [Anonymous Symbol]                       0x08021210   Section        0  tasks.o(.text.prvInitialiseTaskLists)
    prvInsertBlockIntoFreeList               0x080212a1   Thumb Code   198  heap_4.o(.text.prvInsertBlockIntoFreeList)
    [Anonymous Symbol]                       0x080212a0   Section        0  heap_4.o(.text.prvInsertBlockIntoFreeList)
    prvInsertTimerInActiveList               0x08021369   Thumb Code   134  timers.o(.text.prvInsertTimerInActiveList)
    [Anonymous Symbol]                       0x08021368   Section        0  timers.o(.text.prvInsertTimerInActiveList)
    prvIsQueueEmpty                          0x080213f1   Thumb Code    40  queue.o(.text.prvIsQueueEmpty)
    [Anonymous Symbol]                       0x080213f0   Section        0  queue.o(.text.prvIsQueueEmpty)
    prvIsQueueFull                           0x08021419   Thumb Code    46  queue.o(.text.prvIsQueueFull)
    [Anonymous Symbol]                       0x08021418   Section        0  queue.o(.text.prvIsQueueFull)
    prvPortStartFirstTask                    0x08021449   Thumb Code    34  port.o(.text.prvPortStartFirstTask)
    [Anonymous Symbol]                       0x08021448   Section        0  port.o(.text.prvPortStartFirstTask)
    prvProcessExpiredTimer                   0x08021471   Thumb Code   142  timers.o(.text.prvProcessExpiredTimer)
    [Anonymous Symbol]                       0x08021470   Section        0  timers.o(.text.prvProcessExpiredTimer)
    prvProcessReceivedCommands               0x08021501   Thumb Code   402  timers.o(.text.prvProcessReceivedCommands)
    [Anonymous Symbol]                       0x08021500   Section        0  timers.o(.text.prvProcessReceivedCommands)
    prvProcessTimerOrBlockTask               0x08021699   Thumb Code   154  timers.o(.text.prvProcessTimerOrBlockTask)
    [Anonymous Symbol]                       0x08021698   Section        0  timers.o(.text.prvProcessTimerOrBlockTask)
    prvResetNextTaskUnblockTime              0x08021739   Thumb Code    70  tasks.o(.text.prvResetNextTaskUnblockTime)
    [Anonymous Symbol]                       0x08021738   Section        0  tasks.o(.text.prvResetNextTaskUnblockTime)
    prvSampleTimeNow                         0x08021781   Thumb Code    68  timers.o(.text.prvSampleTimeNow)
    [Anonymous Symbol]                       0x08021780   Section        0  timers.o(.text.prvSampleTimeNow)
    prvSwitchTimerLists                      0x080217c9   Thumb Code   212  timers.o(.text.prvSwitchTimerLists)
    [Anonymous Symbol]                       0x080217c8   Section        0  timers.o(.text.prvSwitchTimerLists)
    prvTaskCheckFreeStackSpace               0x080218a1   Thumb Code    48  tasks.o(.text.prvTaskCheckFreeStackSpace)
    [Anonymous Symbol]                       0x080218a0   Section        0  tasks.o(.text.prvTaskCheckFreeStackSpace)
    prvTaskExitError                         0x080218d1   Thumb Code    76  port.o(.text.prvTaskExitError)
    [Anonymous Symbol]                       0x080218d0   Section        0  port.o(.text.prvTaskExitError)
    prvTaskIsTaskSuspended                   0x08021921   Thumb Code   106  tasks.o(.text.prvTaskIsTaskSuspended)
    [Anonymous Symbol]                       0x08021920   Section        0  tasks.o(.text.prvTaskIsTaskSuspended)
    prvTimerTask                             0x08021991   Thumb Code    30  timers.o(.text.prvTimerTask)
    [Anonymous Symbol]                       0x08021990   Section        0  timers.o(.text.prvTimerTask)
    prvUnlockQueue                           0x080219b1   Thumb Code   174  queue.o(.text.prvUnlockQueue)
    [Anonymous Symbol]                       0x080219b0   Section        0  queue.o(.text.prvUnlockQueue)
    [Anonymous Symbol]                       0x08021a60   Section        0  heap_4.o(.text.pvPortMalloc)
    [Anonymous Symbol]                       0x08021c50   Section        0  port.o(.text.pxPortInitialiseStack)
    [Anonymous Symbol]                       0x08021cb0   Section        0  user_lib.o(.text.ramp_calc)
    [Anonymous Symbol]                       0x080221d8   Section        0  user_lib.o(.text.ramp_init)
    string_handle                            0x08022239   Thumb Code   434  buzzer.o(.text.string_handle)
    [Anonymous Symbol]                       0x08022238   Section        0  buzzer.o(.text.string_handle)
    [Anonymous Symbol]                       0x080223f0   Section        0  user_lib.o(.text.trans_thresholds)
    [Anonymous Symbol]                       0x08022498   Section        0  dm_motor.o(.text.uint_to_float)
    [Anonymous Symbol]                       0x080224f0   Section        0  list.o(.text.uxListRemove)
    [Anonymous Symbol]                       0x08022538   Section        0  tasks.o(.text.uxTaskGetStackHighWaterMark)
    [Anonymous Symbol]                       0x08022570   Section        0  cmsis_os2.o(.text.vApplicationGetIdleTaskMemory)
    [Anonymous Symbol]                       0x080225a0   Section        0  cmsis_os2.o(.text.vApplicationGetTimerTaskMemory)
    [Anonymous Symbol]                       0x080225d0   Section        0  list.o(.text.vListInitialise)
    [Anonymous Symbol]                       0x08022600   Section        0  list.o(.text.vListInitialiseItem)
    [Anonymous Symbol]                       0x08022610   Section        0  list.o(.text.vListInsert)
    [Anonymous Symbol]                       0x08022680   Section        0  list.o(.text.vListInsertEnd)
    vPortEnableVFP                           0x080226c1   Thumb Code    14  port.o(.text.vPortEnableVFP)
    [Anonymous Symbol]                       0x080226c0   Section        0  port.o(.text.vPortEnableVFP)
    [Anonymous Symbol]                       0x080226d8   Section        0  port.o(.text.vPortEnterCritical)
    [Anonymous Symbol]                       0x08022730   Section        0  port.o(.text.vPortExitCritical)
    [Anonymous Symbol]                       0x08022780   Section        0  heap_4.o(.text.vPortFree)
    [Anonymous Symbol]                       0x08022850   Section        0  port.o(.text.vPortSetupTimerInterrupt)
    [Anonymous Symbol]                       0x08022898   Section        0  port.o(.text.vPortValidateInterruptPriority)
    [Anonymous Symbol]                       0x08022920   Section        0  queue.o(.text.vQueueAddToRegistry)
    [Anonymous Symbol]                       0x08022978   Section        0  queue.o(.text.vQueueWaitForMessageRestricted)
    [Anonymous Symbol]                       0x080229e0   Section        0  tasks.o(.text.vTaskDelay)
    [Anonymous Symbol]                       0x08022a50   Section        0  tasks.o(.text.vTaskDelayUntil)
    [Anonymous Symbol]                       0x08022b68   Section        0  tasks.o(.text.vTaskInternalSetTimeOutState)
    [Anonymous Symbol]                       0x08022b90   Section        0  tasks.o(.text.vTaskMissedYield)
    [Anonymous Symbol]                       0x08022ba0   Section        0  tasks.o(.text.vTaskPlaceOnEventList)
    [Anonymous Symbol]                       0x08022be8   Section        0  tasks.o(.text.vTaskPlaceOnEventListRestricted)
    [Anonymous Symbol]                       0x08022c40   Section        0  tasks.o(.text.vTaskResume)
    [Anonymous Symbol]                       0x08022d18   Section        0  tasks.o(.text.vTaskStartScheduler)
    [Anonymous Symbol]                       0x08022df8   Section        0  tasks.o(.text.vTaskSuspend)
    [Anonymous Symbol]                       0x08022f20   Section        0  tasks.o(.text.vTaskSuspendAll)
    [Anonymous Symbol]                       0x08022f30   Section        0  tasks.o(.text.vTaskSwitchContext)
    [Anonymous Symbol]                       0x08022ff8   Section        0  wfly_control.o(.text.wfly_to_rc)
    [Anonymous Symbol]                       0x08023340   Section        0  port.o(.text.xPortStartScheduler)
    [Anonymous Symbol]                       0x08023498   Section        0  port.o(.text.xPortSysTickHandler)
    [Anonymous Symbol]                       0x080234d8   Section        0  queue.o(.text.xQueueGenericCreateStatic)
    [Anonymous Symbol]                       0x080235e8   Section        0  queue.o(.text.xQueueGenericReset)
    [Anonymous Symbol]                       0x080236a8   Section        0  queue.o(.text.xQueueGenericSend)
    [Anonymous Symbol]                       0x080238d8   Section        0  queue.o(.text.xQueueGenericSendFromISR)
    [Anonymous Symbol]                       0x08023a28   Section        0  queue.o(.text.xQueueReceive)
    [Anonymous Symbol]                       0x08023c08   Section        0  tasks.o(.text.xTaskCheckForTimeOut)
    [Anonymous Symbol]                       0x08023cd8   Section        0  tasks.o(.text.xTaskCreate)
    [Anonymous Symbol]                       0x08023d78   Section        0  tasks.o(.text.xTaskCreateStatic)
    [Anonymous Symbol]                       0x08023e48   Section        0  tasks.o(.text.xTaskGenericNotify)
    [Anonymous Symbol]                       0x08023fc0   Section        0  tasks.o(.text.xTaskGenericNotifyFromISR)
    [Anonymous Symbol]                       0x08024188   Section        0  tasks.o(.text.xTaskGetSchedulerState)
    [Anonymous Symbol]                       0x080241c0   Section        0  tasks.o(.text.xTaskGetTickCount)
    [Anonymous Symbol]                       0x080241d8   Section        0  tasks.o(.text.xTaskGetTickCountFromISR)
    [Anonymous Symbol]                       0x080241f8   Section        0  tasks.o(.text.xTaskIncrementTick)
    [Anonymous Symbol]                       0x080243c0   Section        0  tasks.o(.text.xTaskPriorityDisinherit)
    [Anonymous Symbol]                       0x080244b0   Section        0  tasks.o(.text.xTaskRemoveFromEventList)
    [Anonymous Symbol]                       0x08024580   Section        0  tasks.o(.text.xTaskResumeAll)
    [Anonymous Symbol]                       0x08024708   Section        0  timers.o(.text.xTimerCreateTimerTask)
    [Anonymous Symbol]                       0x080247a0   Section        0  timers.o(.text.xTimerGenericCommand)
    xvEstimateKF_Init                        0x08024851   Thumb Code   212  balance_chassis.o(.text.xvEstimateKF_Init)
    [Anonymous Symbol]                       0x08024850   Section        0  balance_chassis.o(.text.xvEstimateKF_Init)
    xvEstimateKF_Update                      0x08024929   Thumb Code   100  balance_chassis.o(.text.xvEstimateKF_Update)
    [Anonymous Symbol]                       0x08024928   Section        0  balance_chassis.o(.text.xvEstimateKF_Update)
    i.__ARM_fpclassify                       0x0802498c   Section        0  fpclassify.o(i.__ARM_fpclassify)
    i.__ARM_fpclassifyf                      0x080249bc   Section        0  fpclassifyf.o(i.__ARM_fpclassifyf)
    i.__hardfp_acosf                         0x080249e4   Section        0  acosf.o(i.__hardfp_acosf)
    i.__hardfp_asinf                         0x08024afc   Section        0  asinf.o(i.__hardfp_asinf)
    i.__hardfp_atan                          0x08024c28   Section        0  atan.o(i.__hardfp_atan)
    i.__hardfp_atan2                         0x08024e00   Section        0  atan2.o(i.__hardfp_atan2)
    i.__hardfp_atan2f                        0x08024fc8   Section        0  atan2f.o(i.__hardfp_atan2f)
    i.__hardfp_cosf                          0x08025274   Section        0  cosf.o(i.__hardfp_cosf)
    i.__hardfp_sinf                          0x080253c4   Section        0  sinf.o(i.__hardfp_sinf)
    i.__hardfp_sqrt                          0x08025554   Section        0  sqrt.o(i.__hardfp_sqrt)
    i.__hardfp_sqrtf                         0x080255ba   Section        0  sqrtf.o(i.__hardfp_sqrtf)
    i.__kernel_poly                          0x080255f4   Section        0  poly.o(i.__kernel_poly)
    i.__mathlib_dbl_infnan                   0x08025664   Section        0  dunder.o(i.__mathlib_dbl_infnan)
    i.__mathlib_dbl_infnan2                  0x0802566a   Section        0  dunder.o(i.__mathlib_dbl_infnan2)
    i.__mathlib_dbl_underflow                0x08025670   Section        0  dunder.o(i.__mathlib_dbl_underflow)
    i.__mathlib_flt_infnan                   0x08025688   Section        0  funder.o(i.__mathlib_flt_infnan)
    i.__mathlib_flt_infnan2                  0x0802568e   Section        0  funder.o(i.__mathlib_flt_infnan2)
    i.__mathlib_flt_invalid                  0x08025694   Section        0  funder.o(i.__mathlib_flt_invalid)
    i.__mathlib_flt_underflow                0x080256a4   Section        0  funder.o(i.__mathlib_flt_underflow)
    i.__mathlib_rredf2                       0x080256b4   Section        0  rredf.o(i.__mathlib_rredf2)
    i.atan                                   0x08025808   Section        0  atan.o(i.atan)
    i.fabs                                   0x08025818   Section        0  fabs.o(i.fabs)
    i.sqrtf                                  0x08025830   Section        0  sqrtf.o(i.sqrtf)
    locale$$code                             0x08025870   Section       44  lc_ctype_c.o(locale$$code)
    $v0                                      0x0802589c   Number         0  fpinit.o(x$fpl$fpinit)
    x$fpl$fpinit                             0x0802589c   Section       26  fpinit.o(x$fpl$fpinit)
    x$fpl$usenofp                            0x080258b6   Section        0  usenofp.o(x$fpl$usenofp)
    atanhi                                   0x080258b8   Data          32  atan.o(.constdata)
    .constdata                               0x080258b8   Section      152  atan.o(.constdata)
    atanlo                                   0x080258d8   Data          32  atan.o(.constdata)
    aTodd                                    0x080258f8   Data          40  atan.o(.constdata)
    aTeven                                   0x08025920   Data          48  atan.o(.constdata)
    .constdata                               0x08025950   Section        8  qnan.o(.constdata)
    twooverpi                                0x08025958   Data          32  rredf.o(.constdata)
    .constdata                               0x08025958   Section       32  rredf.o(.constdata)
    .L__const.Buzzer_Register.buzzer_config  0x08025978   Data          24  buzzer.o(.rodata..L__const.Buzzer_Register.buzzer_config)
    .L__const.Buzzer_Task_Init.attr          0x08025990   Data          36  daemon_task.o(.rodata..L__const.Buzzer_Task_Init.attr)
    .L__const.Chassis_Task_Init.attr         0x080259b4   Data          36  chassis_task.o(.rodata..L__const.Chassis_Task_Init.attr)
    .L__const.Gimbal_Task_Init.attr          0x080259d8   Data          36  gimbal_task.o(.rodata..L__const.Gimbal_Task_Init.attr)
    .L__const.HAL_FDCAN_Init.CvtEltSize      0x080259fc   Data          76  stm32h7xx_hal_fdcan.o(.rodata..L__const.HAL_FDCAN_Init.CvtEltSize)
    .L__const.INS_Task_Init.attr             0x08025a48   Data          36  ins_task.o(.rodata..L__const.INS_Task_Init.attr)
    .L__const.Procotol_Task_Init.attr        0x08025a6c   Data          36  procotol_task.o(.rodata..L__const.Procotol_Task_Init.attr)
    .L__const.Shoot_Task_Init.attr           0x08025a90   Data          36  shoot_task.o(.rodata..L__const.Shoot_Task_Init.attr)
    DLCtoBytes                               0x08025ae3   Data          16  stm32h7xx_hal_fdcan.o(.rodata.DLCtoBytes)
    [Anonymous Symbol]                       0x08025ae3   Section        0  stm32h7xx_hal_fdcan.o(.rodata.DLCtoBytes)
    DMA_CalcBaseAndBitshift.flagBitshiftOffset 0x08025af3   Data           8  stm32h7xx_hal_dma.o(.rodata.DMA_CalcBaseAndBitshift.flagBitshiftOffset)
    [Anonymous Symbol]                       0x08025af3   Section        0  stm32h7xx_hal_dma.o(.rodata.DMA_CalcBaseAndBitshift.flagBitshiftOffset)
    UARTEx_SetNbDataToProcess.denominator    0x08025d86   Data           8  stm32h7xx_hal_uart_ex.o(.rodata.UARTEx_SetNbDataToProcess.denominator)
    [Anonymous Symbol]                       0x08025d86   Section        0  stm32h7xx_hal_uart_ex.o(.rodata.UARTEx_SetNbDataToProcess.denominator)
    UARTEx_SetNbDataToProcess.numerator      0x08025d8e   Data           8  stm32h7xx_hal_uart_ex.o(.rodata.UARTEx_SetNbDataToProcess.numerator)
    [Anonymous Symbol]                       0x08025d8e   Section        0  stm32h7xx_hal_uart_ex.o(.rodata.UARTEx_SetNbDataToProcess.numerator)
    _note_tab                                0x08025dfd   Data           7  buzzer.o(.rodata._note_tab)
    [Anonymous Symbol]                       0x08025dfd   Section        0  buzzer.o(.rodata._note_tab)
    [Anonymous Symbol]                       0x08026638   Section        0  freertos.o(.rodata.str1.1)
    .L.str                                   0x08026644   Data           5  tasks.o(.rodata.str1.1)
    [Anonymous Symbol]                       0x08026644   Section        0  tasks.o(.rodata.str1.1)
    .L.str.1                                 0x08026649   Data           5  timers.o(.rodata.str1.1)
    [Anonymous Symbol]                       0x08026649   Section        0  timers.o(.rodata.str1.1)
    .L.str                                   0x0802664e   Data           8  timers.o(.rodata.str1.1)
    .L.str.1                                 0x08026656   Data          22  chassis_task.o(.rodata.str1.1)
    [Anonymous Symbol]                       0x08026656   Section        0  chassis_task.o(.rodata.str1.1)
    .L.str.2                                 0x0802666c   Data          20  chassis_task.o(.rodata.str1.1)
    .L.str.1                                 0x0802668d   Data          21  gimbal_task.o(.rodata.str1.1)
    [Anonymous Symbol]                       0x0802668d   Section        0  gimbal_task.o(.rodata.str1.1)
    .L.str.2                                 0x080266a2   Data          19  gimbal_task.o(.rodata.str1.1)
    .L.str.1                                 0x080266c1   Data          20  shoot_task.o(.rodata.str1.1)
    [Anonymous Symbol]                       0x080266c1   Section        0  shoot_task.o(.rodata.str1.1)
    .L.str.2                                 0x080266d5   Data          18  shoot_task.o(.rodata.str1.1)
    [Anonymous Symbol]                       0x080266f2   Section        0  daemon_task.o(.rodata.str1.1)
    .L.str.1                                 0x080266fe   Data          21  daemon_task.o(.rodata.str1.1)
    .L.str.2                                 0x08026713   Data          19  daemon_task.o(.rodata.str1.1)
    .L.str.1                                 0x08026732   Data          18  ins_task.o(.rodata.str1.1)
    [Anonymous Symbol]                       0x08026732   Section        0  ins_task.o(.rodata.str1.1)
    .L.str.2                                 0x08026744   Data          16  ins_task.o(.rodata.str1.1)
    .L.str.1                                 0x0802675d   Data          23  procotol_task.o(.rodata.str1.1)
    [Anonymous Symbol]                       0x0802675d   Section        0  procotol_task.o(.rodata.str1.1)
    .L.str.2                                 0x08026774   Data          21  procotol_task.o(.rodata.str1.1)
    locale$$data                             0x080267dc   Section      272  lc_ctype_c.o(locale$$data)
    __lcctype_c_name                         0x080267e0   Data           2  lc_ctype_c.o(locale$$data)
    __lcctype_c_start                        0x080267e8   Data           0  lc_ctype_c.o(locale$$data)
    __lcctype_c_end                          0x080268ec   Data           0  lc_ctype_c.o(locale$$data)
    BMI088_Accel_Read.tx                     0x24000000   Data           8  bmi088.o(.data.BMI088_Accel_Read.tx)
    [Anonymous Symbol]                       0x24000000   Section        0  bmi088.o(.data.BMI088_Accel_Read.tx)
    BMI088_Calibrate_IMU.acc_cali_time       0x24000008   Data           2  bmi088.o(.data.BMI088_Calibrate_IMU.acc_cali_time)
    [Anonymous Symbol]                       0x24000008   Section        0  bmi088.o(.data.BMI088_Calibrate_IMU.acc_cali_time)
    BMI088_Calibrate_IMU.cail_time           0x2400000a   Data           2  bmi088.o(.data.BMI088_Calibrate_IMU.cail_time)
    [Anonymous Symbol]                       0x2400000a   Section        0  bmi088.o(.data.BMI088_Calibrate_IMU.cail_time)
    BMI088_Gyro_Read.tx                      0x2400000c   Data           8  bmi088.o(.data.BMI088_Gyro_Read.tx)
    [Anonymous Symbol]                       0x2400000c   Section        0  bmi088.o(.data.BMI088_Gyro_Read.tx)
    VOFA_Send_Data.buf_end                   0x24000410   Data           4  vofa.o(.data.VOFA_Send_Data.buf_end)
    [Anonymous Symbol]                       0x24000410   Section        0  vofa.o(.data.VOFA_Send_Data.buf_end)
    bmi088_accel_init_table                  0x24000414   Data          18  bmi088.o(.data.bmi088_accel_init_table)
    [Anonymous Symbol]                       0x24000414   Section        0  bmi088.o(.data.bmi088_accel_init_table)
    bmi088_gyro_init_table                   0x24000426   Data          18  bmi088.o(.data.bmi088_gyro_init_table)
    [Anonymous Symbol]                       0x24000426   Section        0  bmi088.o(.data.bmi088_gyro_init_table)
    body_high                                0x240004f8   Data           4  vmc.o(.data.body_high)
    [Anonymous Symbol]                       0x240004f8   Section        0  vmc.o(.data.body_high)
    message_center                           0x24000554   Data          48  message_center.o(.data.message_center)
    [Anonymous Symbol]                       0x24000554   Section        0  message_center.o(.data.message_center)
    sender_assignment                        0x240005c8   Data        1200  dji_motor.o(.data.sender_assignment)
    [Anonymous Symbol]                       0x240005c8   Section        0  dji_motor.o(.data.sender_assignment)
    uxCriticalNesting                        0x24000a9c   Data           4  port.o(.data.uxCriticalNesting)
    [Anonymous Symbol]                       0x24000a9c   Section        0  port.o(.data.uxCriticalNesting)
    vaEstimateKF_F                           0x24000aa0   Data          16  balance_chassis.o(.data.vaEstimateKF_F)
    [Anonymous Symbol]                       0x24000aa0   Section        0  balance_chassis.o(.data.vaEstimateKF_F)
    vaEstimateKF_P                           0x24000ab0   Data          16  balance_chassis.o(.data.vaEstimateKF_P)
    [Anonymous Symbol]                       0x24000ab0   Section        0  balance_chassis.o(.data.vaEstimateKF_P)
    vaEstimateKF_Q                           0x24000ac0   Data          16  balance_chassis.o(.data.vaEstimateKF_Q)
    [Anonymous Symbol]                       0x24000ac0   Section        0  balance_chassis.o(.data.vaEstimateKF_Q)
    vaEstimateKF_R                           0x24000ad0   Data          16  balance_chassis.o(.data.vaEstimateKF_R)
    [Anonymous Symbol]                       0x24000ad0   Section        0  balance_chassis.o(.data.vaEstimateKF_R)
    .bss                                     0x24000ae0   Section       96  libspace.o(.bss)
    BMI088_Accel_INT_Callback.bmi088         0x24000b40   Data           4  bmi088.o(.bss.BMI088_Accel_INT_Callback.bmi088)
    [Anonymous Symbol]                       0x24000b40   Section        0  bmi088.o(.bss.BMI088_Accel_INT_Callback.bmi088)
    BMI088_Accel_Read.rx                     0x24000b44   Data           8  bmi088.o(.bss.BMI088_Accel_Read.rx)
    [Anonymous Symbol]                       0x24000b44   Section        0  bmi088.o(.bss.BMI088_Accel_Read.rx)
    BMI088_Accel_SPI_Finish_Callback.bmi088  0x24000b4c   Data           4  bmi088.o(.bss.BMI088_Accel_SPI_Finish_Callback.bmi088)
    [Anonymous Symbol]                       0x24000b4c   Section        0  bmi088.o(.bss.BMI088_Accel_SPI_Finish_Callback.bmi088)
    BMI088_Accel_SPI_Finish_Callback.callback_time 0x24000b50   Data           2  bmi088.o(.bss.BMI088_Accel_SPI_Finish_Callback.callback_time)
    [Anonymous Symbol]                       0x24000b50   Section        0  bmi088.o(.bss.BMI088_Accel_SPI_Finish_Callback.callback_time)
    BMI088_Calibrate_IMU.cali_time_count     0x24000b52   Data           2  bmi088.o(.bss.BMI088_Calibrate_IMU.cali_time_count)
    [Anonymous Symbol]                       0x24000b52   Section        0  bmi088.o(.bss.BMI088_Calibrate_IMU.cali_time_count)
    BMI088_Calibrate_IMU.g_norm_diff         0x24000b54   Data           4  bmi088.o(.bss.BMI088_Calibrate_IMU.g_norm_diff)
    [Anonymous Symbol]                       0x24000b54   Section        0  bmi088.o(.bss.BMI088_Calibrate_IMU.g_norm_diff)
    BMI088_Calibrate_IMU.gyro_diff           0x24000b58   Data          12  bmi088.o(.bss.BMI088_Calibrate_IMU.gyro_diff)
    [Anonymous Symbol]                       0x24000b58   Section        0  bmi088.o(.bss.BMI088_Calibrate_IMU.gyro_diff)
    BMI088_Calibrate_IMU.start_time          0x24000b64   Data           4  bmi088.o(.bss.BMI088_Calibrate_IMU.start_time)
    [Anonymous Symbol]                       0x24000b64   Section        0  bmi088.o(.bss.BMI088_Calibrate_IMU.start_time)
    BMI088_Gyro_INT_Callback.bmi088          0x24000b68   Data           4  bmi088.o(.bss.BMI088_Gyro_INT_Callback.bmi088)
    [Anonymous Symbol]                       0x24000b68   Section        0  bmi088.o(.bss.BMI088_Gyro_INT_Callback.bmi088)
    BMI088_Gyro_Read.rx                      0x24000b6c   Data           8  bmi088.o(.bss.BMI088_Gyro_Read.rx)
    [Anonymous Symbol]                       0x24000b6c   Section        0  bmi088.o(.bss.BMI088_Gyro_Read.rx)
    BMI088_Gyro_SPI_Finish_Callback.bmi088   0x24000b74   Data           4  bmi088.o(.bss.BMI088_Gyro_SPI_Finish_Callback.bmi088)
    [Anonymous Symbol]                       0x24000b74   Section        0  bmi088.o(.bss.BMI088_Gyro_SPI_Finish_Callback.bmi088)
    BMI088_Read_All.buf                      0x24000b78   Data           6  bmi088.o(.bss.BMI088_Read_All.buf)
    [Anonymous Symbol]                       0x24000b78   Section        0  bmi088.o(.bss.BMI088_Read_All.buf)
    BMI088_Register.error_count              0x24000b7e   Data           1  bmi088.o(.bss.BMI088_Register.error_count)
    [Anonymous Symbol]                       0x24000b7e   Section        0  bmi088.o(.bss.BMI088_Register.error_count)
    BMI088_Temp_Control.first_temperate      0x24000b7f   Data           1  bmi088.o(.bss.BMI088_Temp_Control.first_temperate)
    [Anonymous Symbol]                       0x24000b7f   Section        0  bmi088.o(.bss.BMI088_Temp_Control.first_temperate)
    BMI088_Temp_Control.target_temp          0x24000b80   Data           4  bmi088.o(.bss.BMI088_Temp_Control.target_temp)
    [Anonymous Symbol]                       0x24000b80   Section        0  bmi088.o(.bss.BMI088_Temp_Control.target_temp)
    BMI088_Temp_Control.temp_constant_time   0x24000b84   Data           1  bmi088.o(.bss.BMI088_Temp_Control.temp_constant_time)
    [Anonymous Symbol]                       0x24000b84   Section        0  bmi088.o(.bss.BMI088_Temp_Control.temp_constant_time)
    CANFIFOxCallback.can_rx_buff             0x24000b8c   Data          64  bsp_can.o(.bss.CANFIFOxCallback.can_rx_buff)
    [Anonymous Symbol]                       0x24000b8c   Section        0  bsp_can.o(.bss.CANFIFOxCallback.can_rx_buff)
    CANFIFOxCallback.rx_config_header        0x24000bcc   Data          40  bsp_can.o(.bss.CANFIFOxCallback.rx_config_header)
    [Anonymous Symbol]                       0x24000bcc   Section        0  bsp_can.o(.bss.CANFIFOxCallback.rx_config_header)
    CAN_Add_Filter.can1_filter_cnt           0x24000bf4   Data           1  bsp_can.o(.bss.CAN_Add_Filter.can1_filter_cnt)
    [Anonymous Symbol]                       0x24000bf4   Section        0  bsp_can.o(.bss.CAN_Add_Filter.can1_filter_cnt)
    CAN_Add_Filter.can1_filter_idx           0x24000bf5   Data           1  bsp_can.o(.bss.CAN_Add_Filter.can1_filter_idx)
    [Anonymous Symbol]                       0x24000bf5   Section        0  bsp_can.o(.bss.CAN_Add_Filter.can1_filter_idx)
    CAN_Add_Filter.can2_filter_cnt           0x24000bf6   Data           1  bsp_can.o(.bss.CAN_Add_Filter.can2_filter_cnt)
    [Anonymous Symbol]                       0x24000bf6   Section        0  bsp_can.o(.bss.CAN_Add_Filter.can2_filter_cnt)
    CAN_Add_Filter.can2_filter_idx           0x24000bf7   Data           1  bsp_can.o(.bss.CAN_Add_Filter.can2_filter_idx)
    [Anonymous Symbol]                       0x24000bf7   Section        0  bsp_can.o(.bss.CAN_Add_Filter.can2_filter_idx)
    CAN_Add_Filter.can3_filter_cnt           0x24000bf8   Data           1  bsp_can.o(.bss.CAN_Add_Filter.can3_filter_cnt)
    [Anonymous Symbol]                       0x24000bf8   Section        0  bsp_can.o(.bss.CAN_Add_Filter.can3_filter_cnt)
    CAN_Add_Filter.can3_filter_idx           0x24000bf9   Data           1  bsp_can.o(.bss.CAN_Add_Filter.can3_filter_idx)
    [Anonymous Symbol]                       0x24000bf9   Section        0  bsp_can.o(.bss.CAN_Add_Filter.can3_filter_idx)
    CAN_Transmit.busy_count                  0x24000bfc   Data           4  bsp_can.o(.bss.CAN_Transmit.busy_count)
    [Anonymous Symbol]                       0x24000bfc   Section        0  bsp_can.o(.bss.CAN_Transmit.busy_count)
    CPU_frequency                            0x24000c00   Data           4  bsp_dwt.o(.bss.CPU_frequency)
    [Anonymous Symbol]                       0x24000c00   Section        0  bsp_dwt.o(.bss.CPU_frequency)
    CPU_frequency_ms                         0x24000c04   Data           4  bsp_dwt.o(.bss.CPU_frequency_ms)
    [Anonymous Symbol]                       0x24000c04   Section        0  bsp_dwt.o(.bss.CPU_frequency_ms)
    CPU_frequency_us                         0x24000c08   Data           4  bsp_dwt.o(.bss.CPU_frequency_us)
    [Anonymous Symbol]                       0x24000c08   Section        0  bsp_dwt.o(.bss.CPU_frequency_us)
    CYCCNT_last                              0x24000c18   Data           4  bsp_dwt.o(.bss.CYCCNT_last)
    [Anonymous Symbol]                       0x24000c18   Section        0  bsp_dwt.o(.bss.CYCCNT_last)
    CYCCNT_round_count                       0x24000c1c   Data           4  bsp_dwt.o(.bss.CYCCNT_round_count)
    [Anonymous Symbol]                       0x24000c1c   Section        0  bsp_dwt.o(.bss.CYCCNT_round_count)
    Chassis_Handle_Exception.exception_cnt   0x24000c20   Data           2  balance_chassis.o(.bss.Chassis_Handle_Exception.exception_cnt)
    [Anonymous Symbol]                       0x24000c20   Section        0  balance_chassis.o(.bss.Chassis_Handle_Exception.exception_cnt)
    Chassis_Leg_Update.dt                    0x24000c24   Data           4  balance_chassis.o(.bss.Chassis_Leg_Update.dt)
    [Anonymous Symbol]                       0x24000c24   Section        0  balance_chassis.o(.bss.Chassis_Leg_Update.dt)
    Chassis_Leg_Update.leg_dwt               0x24000c28   Data           4  balance_chassis.o(.bss.Chassis_Leg_Update.leg_dwt)
    [Anonymous Symbol]                       0x24000c28   Section        0  balance_chassis.o(.bss.Chassis_Leg_Update.leg_dwt)
    Chassis_Normal_Control.chassis_err       0x24000c2c   Data          24  balance_chassis.o(.bss.Chassis_Normal_Control.chassis_err)
    [Anonymous Symbol]                       0x24000c2c   Section        0  balance_chassis.o(.bss.Chassis_Normal_Control.chassis_err)
    Chassis_Normal_Control.jump_end_cnt      0x24000c44   Data           2  balance_chassis.o(.bss.Chassis_Normal_Control.jump_end_cnt)
    [Anonymous Symbol]                       0x24000c44   Section        0  balance_chassis.o(.bss.Chassis_Normal_Control.jump_end_cnt)
    Chassis_Observer.chassis_ob_cnt          0x24000c48   Data           4  balance_chassis.o(.bss.Chassis_Observer.chassis_ob_cnt)
    [Anonymous Symbol]                       0x24000c48   Section        0  balance_chassis.o(.bss.Chassis_Observer.chassis_ob_cnt)
    Chassis_Send_Cmd.chassis_send_cnt        0x24000c4c   Data           4  balance_chassis.o(.bss.Chassis_Send_Cmd.chassis_send_cnt)
    [Anonymous Symbol]                       0x24000c4c   Section        0  balance_chassis.o(.bss.Chassis_Send_Cmd.chassis_send_cnt)
    Chassis_Speed_Update.aver_v              0x24000c50   Data           4  balance_chassis.o(.bss.Chassis_Speed_Update.aver_v)
    [Anonymous Symbol]                       0x24000c50   Section        0  balance_chassis.o(.bss.Chassis_Speed_Update.aver_v)
    Chassis_Speed_Update.dt                  0x24000c54   Data           4  balance_chassis.o(.bss.Chassis_Speed_Update.dt)
    [Anonymous Symbol]                       0x24000c54   Section        0  balance_chassis.o(.bss.Chassis_Speed_Update.dt)
    Chassis_Speed_Update.fusion_v_data       0x24000c58   Data           8  balance_chassis.o(.bss.Chassis_Speed_Update.fusion_v_data)
    [Anonymous Symbol]                       0x24000c58   Section        0  balance_chassis.o(.bss.Chassis_Speed_Update.fusion_v_data)
    Chassis_Speed_Update.observe_dwt         0x24000c60   Data           4  balance_chassis.o(.bss.Chassis_Speed_Update.observe_dwt)
    [Anonymous Symbol]                       0x24000c60   Section        0  balance_chassis.o(.bss.Chassis_Speed_Update.observe_dwt)
    Chassis_Speed_Update.v_left_b_axis       0x24000c64   Data           4  balance_chassis.o(.bss.Chassis_Speed_Update.v_left_b_axis)
    [Anonymous Symbol]                       0x24000c64   Section        0  balance_chassis.o(.bss.Chassis_Speed_Update.v_left_b_axis)
    Chassis_Speed_Update.v_right_b_axis      0x24000c68   Data           4  balance_chassis.o(.bss.Chassis_Speed_Update.v_right_b_axis)
    [Anonymous Symbol]                       0x24000c68   Section        0  balance_chassis.o(.bss.Chassis_Speed_Update.v_right_b_axis)
    Chassis_Speed_Update.wheel_z_e_left      0x24000c6c   Data           4  balance_chassis.o(.bss.Chassis_Speed_Update.wheel_z_e_left)
    [Anonymous Symbol]                       0x24000c6c   Section        0  balance_chassis.o(.bss.Chassis_Speed_Update.wheel_z_e_left)
    Chassis_Speed_Update.wheel_z_e_right     0x24000c70   Data           4  balance_chassis.o(.bss.Chassis_Speed_Update.wheel_z_e_right)
    [Anonymous Symbol]                       0x24000c70   Section        0  balance_chassis.o(.bss.Chassis_Speed_Update.wheel_z_e_right)
    DWT_CNT_Update.bit_locker                0x24000c8c   Data           1  bsp_dwt.o(.bss.DWT_CNT_Update.bit_locker)
    [Anonymous Symbol]                       0x24000c8c   Section        0  bsp_dwt.o(.bss.DWT_CNT_Update.bit_locker)
    DWT_System_Time_Update.CNT_TEMP1         0x24000c90   Data           8  bsp_dwt.o(.bss.DWT_System_Time_Update.CNT_TEMP1)
    [Anonymous Symbol]                       0x24000c90   Section        0  bsp_dwt.o(.bss.DWT_System_Time_Update.CNT_TEMP1)
    DWT_System_Time_Update.CNT_TEMP2         0x24000c98   Data           8  bsp_dwt.o(.bss.DWT_System_Time_Update.CNT_TEMP2)
    [Anonymous Symbol]                       0x24000c98   Section        0  bsp_dwt.o(.bss.DWT_System_Time_Update.CNT_TEMP2)
    DWT_System_Time_Update.CNT_TEMP3         0x24000ca0   Data           8  bsp_dwt.o(.bss.DWT_System_Time_Update.CNT_TEMP3)
    [Anonymous Symbol]                       0x24000ca0   Section        0  bsp_dwt.o(.bss.DWT_System_Time_Update.CNT_TEMP3)
    F_Integral_Limit.temp_iout               0x24000ca8   Data           4  digital_pid.o(.bss.F_Integral_Limit.temp_iout)
    [Anonymous Symbol]                       0x24000ca8   Section        0  digital_pid.o(.bss.F_Integral_Limit.temp_iout)
    F_Integral_Limit.temp_output             0x24000cac   Data           4  digital_pid.o(.bss.F_Integral_Limit.temp_output)
    [Anonymous Symbol]                       0x24000cac   Section        0  digital_pid.o(.bss.F_Integral_Limit.temp_output)
    HAL_RCC_FDCAN_CLK_ENABLED                0x24000cb0   Data           4  fdcan.o(.bss.HAL_RCC_FDCAN_CLK_ENABLED)
    [Anonymous Symbol]                       0x24000cb0   Section        0  fdcan.o(.bss.HAL_RCC_FDCAN_CLK_ENABLED)
    IMU_QuaternionEKF_F_Linearization_P_Fading.q0 0x24000cb4   Data           4  quaternionekf.o(.bss.IMU_QuaternionEKF_F_Linearization_P_Fading.q0)
    [Anonymous Symbol]                       0x24000cb4   Section        0  quaternionekf.o(.bss.IMU_QuaternionEKF_F_Linearization_P_Fading.q0)
    IMU_QuaternionEKF_F_Linearization_P_Fading.q1 0x24000cb8   Data           4  quaternionekf.o(.bss.IMU_QuaternionEKF_F_Linearization_P_Fading.q1)
    [Anonymous Symbol]                       0x24000cb8   Section        0  quaternionekf.o(.bss.IMU_QuaternionEKF_F_Linearization_P_Fading.q1)
    IMU_QuaternionEKF_F_Linearization_P_Fading.q2 0x24000cbc   Data           4  quaternionekf.o(.bss.IMU_QuaternionEKF_F_Linearization_P_Fading.q2)
    [Anonymous Symbol]                       0x24000cbc   Section        0  quaternionekf.o(.bss.IMU_QuaternionEKF_F_Linearization_P_Fading.q2)
    IMU_QuaternionEKF_F_Linearization_P_Fading.q3 0x24000cc0   Data           4  quaternionekf.o(.bss.IMU_QuaternionEKF_F_Linearization_P_Fading.q3)
    [Anonymous Symbol]                       0x24000cc0   Section        0  quaternionekf.o(.bss.IMU_QuaternionEKF_F_Linearization_P_Fading.q3)
    IMU_QuaternionEKF_F_Linearization_P_Fading.qInvNorm 0x24000cc4   Data           4  quaternionekf.o(.bss.IMU_QuaternionEKF_F_Linearization_P_Fading.qInvNorm)
    [Anonymous Symbol]                       0x24000cc4   Section        0  quaternionekf.o(.bss.IMU_QuaternionEKF_F_Linearization_P_Fading.qInvNorm)
    IMU_QuaternionEKF_SetH.doubleq0          0x24000d58   Data           4  quaternionekf.o(.bss.IMU_QuaternionEKF_SetH.doubleq0)
    [Anonymous Symbol]                       0x24000d58   Section        0  quaternionekf.o(.bss.IMU_QuaternionEKF_SetH.doubleq0)
    IMU_QuaternionEKF_SetH.doubleq1          0x24000d5c   Data           4  quaternionekf.o(.bss.IMU_QuaternionEKF_SetH.doubleq1)
    [Anonymous Symbol]                       0x24000d5c   Section        0  quaternionekf.o(.bss.IMU_QuaternionEKF_SetH.doubleq1)
    IMU_QuaternionEKF_SetH.doubleq2          0x24000d60   Data           4  quaternionekf.o(.bss.IMU_QuaternionEKF_SetH.doubleq2)
    [Anonymous Symbol]                       0x24000d60   Section        0  quaternionekf.o(.bss.IMU_QuaternionEKF_SetH.doubleq2)
    IMU_QuaternionEKF_SetH.doubleq3          0x24000d64   Data           4  quaternionekf.o(.bss.IMU_QuaternionEKF_SetH.doubleq3)
    [Anonymous Symbol]                       0x24000d64   Section        0  quaternionekf.o(.bss.IMU_QuaternionEKF_SetH.doubleq3)
    IMU_QuaternionEKF_Update.accelInvNorm    0x24000d68   Data           4  quaternionekf.o(.bss.IMU_QuaternionEKF_Update.accelInvNorm)
    [Anonymous Symbol]                       0x24000d68   Section        0  quaternionekf.o(.bss.IMU_QuaternionEKF_Update.accelInvNorm)
    IMU_QuaternionEKF_Update.halfgxdt        0x24000d6c   Data           4  quaternionekf.o(.bss.IMU_QuaternionEKF_Update.halfgxdt)
    [Anonymous Symbol]                       0x24000d6c   Section        0  quaternionekf.o(.bss.IMU_QuaternionEKF_Update.halfgxdt)
    IMU_QuaternionEKF_Update.halfgydt        0x24000d70   Data           4  quaternionekf.o(.bss.IMU_QuaternionEKF_Update.halfgydt)
    [Anonymous Symbol]                       0x24000d70   Section        0  quaternionekf.o(.bss.IMU_QuaternionEKF_Update.halfgydt)
    IMU_QuaternionEKF_Update.halfgzdt        0x24000d74   Data           4  quaternionekf.o(.bss.IMU_QuaternionEKF_Update.halfgzdt)
    [Anonymous Symbol]                       0x24000d74   Section        0  quaternionekf.o(.bss.IMU_QuaternionEKF_Update.halfgzdt)
    IMU_QuaternionEKF_xhatUpdate.q0          0x24000d78   Data           4  quaternionekf.o(.bss.IMU_QuaternionEKF_xhatUpdate.q0)
    [Anonymous Symbol]                       0x24000d78   Section        0  quaternionekf.o(.bss.IMU_QuaternionEKF_xhatUpdate.q0)
    IMU_QuaternionEKF_xhatUpdate.q1          0x24000d7c   Data           4  quaternionekf.o(.bss.IMU_QuaternionEKF_xhatUpdate.q1)
    [Anonymous Symbol]                       0x24000d7c   Section        0  quaternionekf.o(.bss.IMU_QuaternionEKF_xhatUpdate.q1)
    IMU_QuaternionEKF_xhatUpdate.q2          0x24000d80   Data           4  quaternionekf.o(.bss.IMU_QuaternionEKF_xhatUpdate.q2)
    [Anonymous Symbol]                       0x24000d80   Section        0  quaternionekf.o(.bss.IMU_QuaternionEKF_xhatUpdate.q2)
    IMU_QuaternionEKF_xhatUpdate.q3          0x24000d84   Data           4  quaternionekf.o(.bss.IMU_QuaternionEKF_xhatUpdate.q3)
    [Anonymous Symbol]                       0x24000d84   Section        0  quaternionekf.o(.bss.IMU_QuaternionEKF_xhatUpdate.q3)
    INS_Task.INS_dwt_count                   0x24000e1c   Data           4  ins_task.o(.bss.INS_Task.INS_dwt_count)
    [Anonymous Symbol]                       0x24000e1c   Section        0  ins_task.o(.bss.INS_Task.INS_dwt_count)
    INS_publisher                            0x24000e20   Data           4  ins_task.o(.bss.INS_publisher)
    [Anonymous Symbol]                       0x24000e20   Section        0  ins_task.o(.bss.INS_publisher)
    INS_subscriber                           0x24000e24   Data           4  ins_task.o(.bss.INS_subscriber)
    [Anonymous Symbol]                       0x24000e24   Section        0  ins_task.o(.bss.INS_subscriber)
    KernelState                              0x24000e30   Data           4  cmsis_os2.o(.bss.KernelState)
    [Anonymous Symbol]                       0x24000e30   Section        0  cmsis_os2.o(.bss.KernelState)
    LQR_K_L                                  0x24000e34   Data          48  balance_chassis.o(.bss.LQR_K_L)
    [Anonymous Symbol]                       0x24000e34   Section        0  balance_chassis.o(.bss.LQR_K_L)
    LQR_K_R                                  0x24000e64   Data          48  balance_chassis.o(.bss.LQR_K_R)
    [Anonymous Symbol]                       0x24000e64   Section        0  balance_chassis.o(.bss.LQR_K_R)
    Slip_Detect.v_r_delta_wheel              0x24001080   Data          80  balance_chassis.o(.bss.Slip_Detect.v_r_delta_wheel)
    [Anonymous Symbol]                       0x24001080   Section        0  balance_chassis.o(.bss.Slip_Detect.v_r_delta_wheel)
    StartDefaultTask.music_lock              0x240010d0   Data           1  freertos.o(.bss.StartDefaultTask.music_lock)
    [Anonymous Symbol]                       0x240010d0   Section        0  freertos.o(.bss.StartDefaultTask.music_lock)
    WS2812_Control.txbuf                     0x240010d1   Data          24  ws2812.o(.bss.WS2812_Control.txbuf)
    [Anonymous Symbol]                       0x240010d1   Section        0  ws2812.o(.bss.WS2812_Control.txbuf)
    buzzer                                   0x24001204   Data           4  buzzer.o(.bss.buzzer)
    [Anonymous Symbol]                       0x24001204   Section        0  buzzer.o(.bss.buzzer)
    buzzer_one_note_flag                     0x24001208   Data           1  buzzer.o(.bss.buzzer_one_note_flag)
    [Anonymous Symbol]                       0x24001208   Section        0  buzzer.o(.bss.buzzer_one_note_flag)
    buzzer_one_note_time                     0x2400120c   Data           4  buzzer.o(.bss.buzzer_one_note_time)
    [Anonymous Symbol]                       0x2400120c   Section        0  buzzer.o(.bss.buzzer_one_note_time)
    can_instances                            0x24001210   Data          96  bsp_can.o(.bss.can_instances)
    [Anonymous Symbol]                       0x24001210   Section        0  bsp_can.o(.bss.can_instances)
    chassis_publisher                        0x240013f8   Data           4  chassis_task.o(.bss.chassis_publisher)
    [Anonymous Symbol]                       0x240013f8   Section        0  chassis_task.o(.bss.chassis_publisher)
    chassis_subscriber                       0x24001550   Data           4  chassis_task.o(.bss.chassis_subscriber)
    [Anonymous Symbol]                       0x24001550   Section        0  chassis_task.o(.bss.chassis_subscriber)
    dji_motor_instances                      0x24001598   Data          48  dji_motor.o(.bss.dji_motor_instances)
    [Anonymous Symbol]                       0x24001598   Section        0  dji_motor.o(.bss.dji_motor_instances)
    dm_motor_instances                       0x240015c8   Data          16  dm_motor.o(.bss.dm_motor_instances)
    [Anonymous Symbol]                       0x240015c8   Section        0  dm_motor.o(.bss.dm_motor_instances)
    gimbal_publisher                         0x240015dc   Data           4  gimbal_task.o(.bss.gimbal_publisher)
    [Anonymous Symbol]                       0x240015dc   Section        0  gimbal_task.o(.bss.gimbal_publisher)
    gimbal_subscriber                        0x240015e0   Data           4  gimbal_task.o(.bss.gimbal_subscriber)
    [Anonymous Symbol]                       0x240015e0   Section        0  gimbal_task.o(.bss.gimbal_subscriber)
    gpio_instances                           0x240015ec   Data          32  bsp_gpio.o(.bss.gpio_instances)
    [Anonymous Symbol]                       0x240015ec   Section        0  bsp_gpio.o(.bss.gpio_instances)
    idx                                      0x24002110   Data           1  bsp_pwm.o(.bss.idx)
    [Anonymous Symbol]                       0x24002110   Section        0  bsp_pwm.o(.bss.idx)
    idx                                      0x24002111   Data           1  bsp_can.o(.bss.idx)
    [Anonymous Symbol]                       0x24002111   Section        0  bsp_can.o(.bss.idx)
    idx                                      0x24002112   Data           1  bsp_usart.o(.bss.idx)
    [Anonymous Symbol]                       0x24002112   Section        0  bsp_usart.o(.bss.idx)
    idx                                      0x24002113   Data           1  bsp_spi.o(.bss.idx)
    [Anonymous Symbol]                       0x24002113   Section        0  bsp_spi.o(.bss.idx)
    idx                                      0x24002114   Data           1  bsp_gpio.o(.bss.idx)
    [Anonymous Symbol]                       0x24002114   Section        0  bsp_gpio.o(.bss.idx)
    idx                                      0x24002115   Data           1  defense_center.o(.bss.idx)
    [Anonymous Symbol]                       0x24002115   Section        0  defense_center.o(.bss.idx)
    idx                                      0x24002116   Data           1  dji_motor.o(.bss.idx)
    [Anonymous Symbol]                       0x24002116   Section        0  dji_motor.o(.bss.idx)
    idx                                      0x24002117   Data           1  dm_motor.o(.bss.idx)
    [Anonymous Symbol]                       0x24002117   Section        0  dm_motor.o(.bss.idx)
    procotol_publisher                       0x24002768   Data           4  procotol_task.o(.bss.procotol_publisher)
    [Anonymous Symbol]                       0x24002768   Section        0  procotol_task.o(.bss.procotol_publisher)
    procotol_subscriber                      0x2400276c   Data           4  procotol_task.o(.bss.procotol_subscriber)
    [Anonymous Symbol]                       0x2400276c   Section        0  procotol_task.o(.bss.procotol_subscriber)
    prvCheckForValidListAndQueue.ucStaticTimerQueueStorage 0x24002778   Data         160  timers.o(.bss.prvCheckForValidListAndQueue.ucStaticTimerQueueStorage)
    [Anonymous Symbol]                       0x24002778   Section        0  timers.o(.bss.prvCheckForValidListAndQueue.ucStaticTimerQueueStorage)
    prvCheckForValidListAndQueue.xStaticTimerQueue 0x24002818   Data          80  timers.o(.bss.prvCheckForValidListAndQueue.xStaticTimerQueue)
    [Anonymous Symbol]                       0x24002818   Section        0  timers.o(.bss.prvCheckForValidListAndQueue.xStaticTimerQueue)
    prvSampleTimeNow.xLastTime               0x24002868   Data           4  timers.o(.bss.prvSampleTimeNow.xLastTime)
    [Anonymous Symbol]                       0x24002868   Section        0  timers.o(.bss.prvSampleTimeNow.xLastTime)
    pwm_instances                            0x2400286c   Data          64  bsp_pwm.o(.bss.pwm_instances)
    [Anonymous Symbol]                       0x2400286c   Section        0  bsp_pwm.o(.bss.pwm_instances)
    pxCurrentTimerList                       0x240028b0   Data           4  timers.o(.bss.pxCurrentTimerList)
    [Anonymous Symbol]                       0x240028b0   Section        0  timers.o(.bss.pxCurrentTimerList)
    pxDelayedTaskList                        0x240028b4   Data           4  tasks.o(.bss.pxDelayedTaskList)
    [Anonymous Symbol]                       0x240028b4   Section        0  tasks.o(.bss.pxDelayedTaskList)
    pxEnd                                    0x240028b8   Data           4  heap_4.o(.bss.pxEnd)
    [Anonymous Symbol]                       0x240028b8   Section        0  heap_4.o(.bss.pxEnd)
    pxOverflowDelayedTaskList                0x240028bc   Data           4  tasks.o(.bss.pxOverflowDelayedTaskList)
    [Anonymous Symbol]                       0x240028bc   Section        0  tasks.o(.bss.pxOverflowDelayedTaskList)
    pxOverflowTimerList                      0x240028c0   Data           4  timers.o(.bss.pxOverflowTimerList)
    [Anonymous Symbol]                       0x240028c0   Section        0  timers.o(.bss.pxOverflowTimerList)
    pxReadyTasksLists                        0x240028c4   Data        1120  tasks.o(.bss.pxReadyTasksLists)
    [Anonymous Symbol]                       0x240028c4   Section        0  tasks.o(.bss.pxReadyTasksLists)
    sender_enable_flag                       0x24002f60   Data          15  dji_motor.o(.bss.sender_enable_flag)
    [Anonymous Symbol]                       0x24002f60   Section        0  dji_motor.o(.bss.sender_enable_flag)
    shoot_publisher                          0x24002f74   Data           4  shoot_task.o(.bss.shoot_publisher)
    [Anonymous Symbol]                       0x24002f74   Section        0  shoot_task.o(.bss.shoot_publisher)
    shoot_subscriber                         0x24002f78   Data           4  shoot_task.o(.bss.shoot_subscriber)
    [Anonymous Symbol]                       0x24002f78   Section        0  shoot_task.o(.bss.shoot_subscriber)
    spi_instances                            0x24002f88   Data           8  bsp_spi.o(.bss.spi_instances)
    [Anonymous Symbol]                       0x24002f88   Section        0  bsp_spi.o(.bss.spi_instances)
    supervisor_instances                     0x24002f94   Data         256  defense_center.o(.bss.supervisor_instances)
    [Anonymous Symbol]                       0x24002f94   Section        0  defense_center.o(.bss.supervisor_instances)
    ucHeap                                   0x240030a0   Data       15360  heap_4.o(.bss.ucHeap)
    [Anonymous Symbol]                       0x240030a0   Section        0  heap_4.o(.bss.ucHeap)
    ucMaxSysCallPriority                     0x24006ca0   Data           1  port.o(.bss.ucMaxSysCallPriority)
    [Anonymous Symbol]                       0x24006ca0   Section        0  port.o(.bss.ucMaxSysCallPriority)
    ulMaxPRIGROUPValue                       0x24006ca4   Data           4  port.o(.bss.ulMaxPRIGROUPValue)
    [Anonymous Symbol]                       0x24006ca4   Section        0  port.o(.bss.ulMaxPRIGROUPValue)
    usart_instances                          0x24006ca8   Data          28  bsp_usart.o(.bss.usart_instances)
    [Anonymous Symbol]                       0x24006ca8   Section        0  bsp_usart.o(.bss.usart_instances)
    uxCurrentNumberOfTasks                   0x24006cc8   Data           4  tasks.o(.bss.uxCurrentNumberOfTasks)
    [Anonymous Symbol]                       0x24006cc8   Section        0  tasks.o(.bss.uxCurrentNumberOfTasks)
    uxDeletedTasksWaitingCleanUp             0x24006ccc   Data           4  tasks.o(.bss.uxDeletedTasksWaitingCleanUp)
    [Anonymous Symbol]                       0x24006ccc   Section        0  tasks.o(.bss.uxDeletedTasksWaitingCleanUp)
    uxSchedulerSuspended                     0x24006cd0   Data           4  tasks.o(.bss.uxSchedulerSuspended)
    [Anonymous Symbol]                       0x24006cd0   Section        0  tasks.o(.bss.uxSchedulerSuspended)
    uxTaskNumber                             0x24006cd4   Data           4  tasks.o(.bss.uxTaskNumber)
    [Anonymous Symbol]                       0x24006cd4   Section        0  tasks.o(.bss.uxTaskNumber)
    uxTopReadyPriority                       0x24006cd8   Data           4  tasks.o(.bss.uxTopReadyPriority)
    [Anonymous Symbol]                       0x24006cd8   Section        0  tasks.o(.bss.uxTopReadyPriority)
    vApplicationGetIdleTaskMemory.Idle_Stack 0x24006cdc   Data         512  cmsis_os2.o(.bss.vApplicationGetIdleTaskMemory.Idle_Stack)
    [Anonymous Symbol]                       0x24006cdc   Section        0  cmsis_os2.o(.bss.vApplicationGetIdleTaskMemory.Idle_Stack)
    vApplicationGetIdleTaskMemory.Idle_TCB   0x24006edc   Data          92  cmsis_os2.o(.bss.vApplicationGetIdleTaskMemory.Idle_TCB)
    [Anonymous Symbol]                       0x24006edc   Section        0  cmsis_os2.o(.bss.vApplicationGetIdleTaskMemory.Idle_TCB)
    vApplicationGetTimerTaskMemory.Timer_Stack 0x24006f38   Data        1024  cmsis_os2.o(.bss.vApplicationGetTimerTaskMemory.Timer_Stack)
    [Anonymous Symbol]                       0x24006f38   Section        0  cmsis_os2.o(.bss.vApplicationGetTimerTaskMemory.Timer_Stack)
    vApplicationGetTimerTaskMemory.Timer_TCB 0x24007338   Data          92  cmsis_os2.o(.bss.vApplicationGetTimerTaskMemory.Timer_TCB)
    [Anonymous Symbol]                       0x24007338   Section        0  cmsis_os2.o(.bss.vApplicationGetTimerTaskMemory.Timer_TCB)
    wfly_instance                            0x2400752c   Data          28  wfly_control.o(.bss.wfly_instance)
    [Anonymous Symbol]                       0x2400752c   Section        0  wfly_control.o(.bss.wfly_instance)
    wfly_usart_instance                      0x24007548   Data           4  wfly_control.o(.bss.wfly_usart_instance)
    [Anonymous Symbol]                       0x24007548   Section        0  wfly_control.o(.bss.wfly_usart_instance)
    xActiveTimerList1                        0x24007564   Data          20  timers.o(.bss.xActiveTimerList1)
    [Anonymous Symbol]                       0x24007564   Section        0  timers.o(.bss.xActiveTimerList1)
    xActiveTimerList2                        0x24007578   Data          20  timers.o(.bss.xActiveTimerList2)
    [Anonymous Symbol]                       0x24007578   Section        0  timers.o(.bss.xActiveTimerList2)
    xBlockAllocatedBit                       0x2400758c   Data           4  heap_4.o(.bss.xBlockAllocatedBit)
    [Anonymous Symbol]                       0x2400758c   Section        0  heap_4.o(.bss.xBlockAllocatedBit)
    xDelayedTaskList1                        0x24007590   Data          20  tasks.o(.bss.xDelayedTaskList1)
    [Anonymous Symbol]                       0x24007590   Section        0  tasks.o(.bss.xDelayedTaskList1)
    xDelayedTaskList2                        0x240075a4   Data          20  tasks.o(.bss.xDelayedTaskList2)
    [Anonymous Symbol]                       0x240075a4   Section        0  tasks.o(.bss.xDelayedTaskList2)
    xFreeBytesRemaining                      0x240075b8   Data           4  heap_4.o(.bss.xFreeBytesRemaining)
    [Anonymous Symbol]                       0x240075b8   Section        0  heap_4.o(.bss.xFreeBytesRemaining)
    xIdleTaskHandle                          0x240075bc   Data           4  tasks.o(.bss.xIdleTaskHandle)
    [Anonymous Symbol]                       0x240075bc   Section        0  tasks.o(.bss.xIdleTaskHandle)
    xMinimumEverFreeBytesRemaining           0x240075c0   Data           4  heap_4.o(.bss.xMinimumEverFreeBytesRemaining)
    [Anonymous Symbol]                       0x240075c0   Section        0  heap_4.o(.bss.xMinimumEverFreeBytesRemaining)
    xNextTaskUnblockTime                     0x240075c4   Data           4  tasks.o(.bss.xNextTaskUnblockTime)
    [Anonymous Symbol]                       0x240075c4   Section        0  tasks.o(.bss.xNextTaskUnblockTime)
    xNumOfOverflows                          0x240075c8   Data           4  tasks.o(.bss.xNumOfOverflows)
    [Anonymous Symbol]                       0x240075c8   Section        0  tasks.o(.bss.xNumOfOverflows)
    xNumberOfSuccessfulAllocations           0x240075cc   Data           4  heap_4.o(.bss.xNumberOfSuccessfulAllocations)
    [Anonymous Symbol]                       0x240075cc   Section        0  heap_4.o(.bss.xNumberOfSuccessfulAllocations)
    xNumberOfSuccessfulFrees                 0x240075d0   Data           4  heap_4.o(.bss.xNumberOfSuccessfulFrees)
    [Anonymous Symbol]                       0x240075d0   Section        0  heap_4.o(.bss.xNumberOfSuccessfulFrees)
    xPendedTicks                             0x240075d4   Data           4  tasks.o(.bss.xPendedTicks)
    [Anonymous Symbol]                       0x240075d4   Section        0  tasks.o(.bss.xPendedTicks)
    xPendingReadyList                        0x240075d8   Data          20  tasks.o(.bss.xPendingReadyList)
    [Anonymous Symbol]                       0x240075d8   Section        0  tasks.o(.bss.xPendingReadyList)
    xSchedulerRunning                        0x2400762c   Data           4  tasks.o(.bss.xSchedulerRunning)
    [Anonymous Symbol]                       0x2400762c   Section        0  tasks.o(.bss.xSchedulerRunning)
    xStart                                   0x24007630   Data           8  heap_4.o(.bss.xStart)
    [Anonymous Symbol]                       0x24007630   Section        0  heap_4.o(.bss.xStart)
    xSuspendedTaskList                       0x24007638   Data          20  tasks.o(.bss.xSuspendedTaskList)
    [Anonymous Symbol]                       0x24007638   Section        0  tasks.o(.bss.xSuspendedTaskList)
    xTasksWaitingTermination                 0x2400764c   Data          20  tasks.o(.bss.xTasksWaitingTermination)
    [Anonymous Symbol]                       0x2400764c   Section        0  tasks.o(.bss.xTasksWaitingTermination)
    xTickCount                               0x24007660   Data           4  tasks.o(.bss.xTickCount)
    [Anonymous Symbol]                       0x24007660   Section        0  tasks.o(.bss.xTickCount)
    xTimerQueue                              0x24007664   Data           4  timers.o(.bss.xTimerQueue)
    [Anonymous Symbol]                       0x24007664   Section        0  timers.o(.bss.xTimerQueue)
    xTimerTaskHandle                         0x24007668   Data           4  timers.o(.bss.xTimerTaskHandle)
    [Anonymous Symbol]                       0x24007668   Section        0  timers.o(.bss.xTimerTaskHandle)
    xYieldPending                            0x2400766c   Data           4  tasks.o(.bss.xYieldPending)
    [Anonymous Symbol]                       0x2400766c   Section        0  tasks.o(.bss.xYieldPending)
    Heap_Mem                                 0x24007670   Data        5632  startup_stm32h723xx.o(HEAP)
    HEAP                                     0x24007670   Section     5632  startup_stm32h723xx.o(HEAP)
    Stack_Mem                                0x24008c70   Data       12800  startup_stm32h723xx.o(STACK)
    STACK                                    0x24008c70   Section    12800  startup_stm32h723xx.o(STACK)
    __initial_sp                             0x2400be70   Data           0  startup_stm32h723xx.o(STACK)

    Global Symbols

    Symbol Name                              Value     Ov Type        Size  Object(Section)

    BuildAttributes$$THM_ISAv4$E$P$D$K$B$S$7EM$VFPv5_D16$PE$PLD8$A:L22UL41UL21$X:L11$S22US41US21$IEEE1$IW$~IW$USESV6$~STKCKD$USESV7$~SHL$OTIME$ROPI$IEEEX$EBA8$UX$STANDARDLIB$REQ8$PRES8$EABIv2 0x00000000   Number         0  anon$$obj.o ABSOLUTE
    _printf_flags                            0x00000000   Number         0  printf_stubs.o ABSOLUTE
    _printf_return_value                     0x00000000   Number         0  printf_stubs.o ABSOLUTE
    _printf_sizespec                         0x00000000   Number         0  printf_stubs.o ABSOLUTE
    _printf_widthprec                        0x00000000   Number         0  printf_stubs.o ABSOLUTE
    __ARM_exceptions_init                     - Undefined Weak Reference
    __alloca_initialize                       - Undefined Weak Reference
    __arm_preinit_                            - Undefined Weak Reference
    __arm_relocate_pie_                       - Undefined Weak Reference
    __cpp_initialize__aeabi_                  - Undefined Weak Reference
    __cxa_finalize                            - Undefined Weak Reference
    __sigvec_lookup                           - Undefined Weak Reference
    __user_heap_extent                        - Undefined Weak Reference
    _atexit_init                              - Undefined Weak Reference
    _call_atexit_fns                          - Undefined Weak Reference
    _clock_init                               - Undefined Weak Reference
    _fp_trap_init                             - Undefined Weak Reference
    _fp_trap_shutdown                         - Undefined Weak Reference
    _get_lc_collate                           - Undefined Weak Reference
    _get_lc_monetary                          - Undefined Weak Reference
    _get_lc_time                              - Undefined Weak Reference
    _getenv_init                              - Undefined Weak Reference
    _handle_redirection                       - Undefined Weak Reference
    _initio                                   - Undefined Weak Reference
    _mutex_acquire                            - Undefined Weak Reference
    _mutex_free                               - Undefined Weak Reference
    _mutex_release                            - Undefined Weak Reference
    _printf_mbtowc                            - Undefined Weak Reference
    _printf_wc                                - Undefined Weak Reference
    _rand_init                                - Undefined Weak Reference
    _signal_finish                            - Undefined Weak Reference
    _signal_init                              - Undefined Weak Reference
    _terminateio                              - Undefined Weak Reference
    __Vectors_Size                           0x000002cc   Number         0  startup_stm32h723xx.o ABSOLUTE
    __Vectors                                0x08000000   Data           4  startup_stm32h723xx.o(RESET)
    __Vectors_End                            0x080002cc   Data           0  startup_stm32h723xx.o(RESET)
    __main                                   0x080002cd   Thumb Code     8  __main.o(!!!main)
    __scatterload                            0x080002d5   Thumb Code     0  __scatter.o(!!!scatter)
    __scatterload_rt2                        0x080002d5   Thumb Code    84  __scatter.o(!!!scatter)
    __scatterload_rt2_thumb_only             0x080002d5   Thumb Code     0  __scatter.o(!!!scatter)
    __scatterload_loop                       0x080002df   Thumb Code     0  __scatter.o(!!!scatter)
    __decompress                             0x08000331   Thumb Code    90  __dczerorl2.o(!!dczerorl2)
    __decompress1                            0x08000331   Thumb Code     0  __dczerorl2.o(!!dczerorl2)
    __scatterload_null                       0x0800038d   Thumb Code     2  __scatter.o(!!handler_null)
    __scatterload_zeroinit                   0x08000391   Thumb Code    28  __scatter_zi.o(!!handler_zi)
    __rt_lib_init                            0x080003ad   Thumb Code     0  libinit.o(.ARM.Collect$$libinit$$00000000)
    __rt_lib_init_fp_1                       0x080003af   Thumb Code     0  libinit2.o(.ARM.Collect$$libinit$$00000001)
    __rt_lib_init_heap_2                     0x080003b3   Thumb Code     0  libinit2.o(.ARM.Collect$$libinit$$00000007)
    __rt_lib_init_preinit_1                  0x080003b3   Thumb Code     0  libinit2.o(.ARM.Collect$$libinit$$00000006)
    __rt_lib_init_relocate_pie_1             0x080003b3   Thumb Code     0  libinit2.o(.ARM.Collect$$libinit$$00000004)
    __rt_lib_init_heap_1                     0x080003bb   Thumb Code     0  libinit2.o(.ARM.Collect$$libinit$$0000000C)
    __rt_lib_init_lc_common                  0x080003bb   Thumb Code     0  libinit2.o(.ARM.Collect$$libinit$$00000011)
    __rt_lib_init_rand_1                     0x080003bb   Thumb Code     0  libinit2.o(.ARM.Collect$$libinit$$00000010)
    __rt_lib_init_user_alloc_1               0x080003bb   Thumb Code     0  libinit2.o(.ARM.Collect$$libinit$$0000000E)
    __rt_lib_init_lc_collate_1               0x080003c1   Thumb Code     0  libinit2.o(.ARM.Collect$$libinit$$00000013)
    __rt_lib_init_lc_ctype_2                 0x080003c1   Thumb Code     0  libinit2.o(.ARM.Collect$$libinit$$00000014)
    __rt_lib_init_alloca_1                   0x080003cd   Thumb Code     0  libinit2.o(.ARM.Collect$$libinit$$00000030)
    __rt_lib_init_argv_1                     0x080003cd   Thumb Code     0  libinit2.o(.ARM.Collect$$libinit$$0000002E)
    __rt_lib_init_atexit_1                   0x080003cd   Thumb Code     0  libinit2.o(.ARM.Collect$$libinit$$0000001D)
    __rt_lib_init_clock_1                    0x080003cd   Thumb Code     0  libinit2.o(.ARM.Collect$$libinit$$00000023)
    __rt_lib_init_cpp_1                      0x080003cd   Thumb Code     0  libinit2.o(.ARM.Collect$$libinit$$00000034)
    __rt_lib_init_exceptions_1               0x080003cd   Thumb Code     0  libinit2.o(.ARM.Collect$$libinit$$00000032)
    __rt_lib_init_fp_trap_1                  0x080003cd   Thumb Code     0  libinit2.o(.ARM.Collect$$libinit$$00000021)
    __rt_lib_init_getenv_1                   0x080003cd   Thumb Code     0  libinit2.o(.ARM.Collect$$libinit$$00000025)
    __rt_lib_init_lc_ctype_1                 0x080003cd   Thumb Code     0  libinit2.o(.ARM.Collect$$libinit$$00000015)
    __rt_lib_init_lc_monetary_1              0x080003cd   Thumb Code     0  libinit2.o(.ARM.Collect$$libinit$$00000017)
    __rt_lib_init_lc_numeric_1               0x080003cd   Thumb Code     0  libinit2.o(.ARM.Collect$$libinit$$00000019)
    __rt_lib_init_lc_time_1                  0x080003cd   Thumb Code     0  libinit2.o(.ARM.Collect$$libinit$$0000001B)
    __rt_lib_init_return                     0x080003cd   Thumb Code     0  libinit2.o(.ARM.Collect$$libinit$$00000035)
    __rt_lib_init_signal_1                   0x080003cd   Thumb Code     0  libinit2.o(.ARM.Collect$$libinit$$0000001F)
    __rt_lib_init_stdio_1                    0x080003cd   Thumb Code     0  libinit2.o(.ARM.Collect$$libinit$$00000027)
    __rt_lib_shutdown                        0x080003cf   Thumb Code     0  libshutdown.o(.ARM.Collect$$libshutdown$$00000000)
    __rt_lib_shutdown_cpp_1                  0x080003d1   Thumb Code     0  libshutdown2.o(.ARM.Collect$$libshutdown$$00000002)
    __rt_lib_shutdown_fp_trap_1              0x080003d1   Thumb Code     0  libshutdown2.o(.ARM.Collect$$libshutdown$$00000007)
    __rt_lib_shutdown_heap_1                 0x080003d1   Thumb Code     0  libshutdown2.o(.ARM.Collect$$libshutdown$$0000000F)
    __rt_lib_shutdown_return                 0x080003d1   Thumb Code     0  libshutdown2.o(.ARM.Collect$$libshutdown$$00000010)
    __rt_lib_shutdown_signal_1               0x080003d1   Thumb Code     0  libshutdown2.o(.ARM.Collect$$libshutdown$$0000000A)
    __rt_lib_shutdown_stdio_1                0x080003d1   Thumb Code     0  libshutdown2.o(.ARM.Collect$$libshutdown$$00000004)
    __rt_lib_shutdown_user_alloc_1           0x080003d1   Thumb Code     0  libshutdown2.o(.ARM.Collect$$libshutdown$$0000000C)
    __rt_entry                               0x080003d3   Thumb Code     0  __rtentry.o(.ARM.Collect$$rtentry$$00000000)
    __rt_entry_presh_1                       0x080003d3   Thumb Code     0  __rtentry2.o(.ARM.Collect$$rtentry$$00000002)
    __rt_entry_sh                            0x080003d3   Thumb Code     0  __rtentry4.o(.ARM.Collect$$rtentry$$00000004)
    __rt_entry_li                            0x080003d9   Thumb Code     0  __rtentry2.o(.ARM.Collect$$rtentry$$0000000A)
    __rt_entry_postsh_1                      0x080003d9   Thumb Code     0  __rtentry2.o(.ARM.Collect$$rtentry$$00000009)
    __rt_entry_main                          0x080003dd   Thumb Code     0  __rtentry2.o(.ARM.Collect$$rtentry$$0000000D)
    __rt_entry_postli_1                      0x080003dd   Thumb Code     0  __rtentry2.o(.ARM.Collect$$rtentry$$0000000C)
    __rt_exit                                0x080003e5   Thumb Code     0  rtexit.o(.ARM.Collect$$rtexit$$00000000)
    __rt_exit_ls                             0x080003e7   Thumb Code     0  rtexit2.o(.ARM.Collect$$rtexit$$00000003)
    __rt_exit_prels_1                        0x080003e7   Thumb Code     0  rtexit2.o(.ARM.Collect$$rtexit$$00000002)
    __rt_exit_exit                           0x080003eb   Thumb Code     0  rtexit2.o(.ARM.Collect$$rtexit$$00000004)
    Reset_Handler                            0x080003f1   Thumb Code    12  startup_stm32h723xx.o(.text)
    ADC3_IRQHandler                          0x0800040f   Thumb Code     0  startup_stm32h723xx.o(.text)
    ADC_IRQHandler                           0x0800040f   Thumb Code     0  startup_stm32h723xx.o(.text)
    BDMA_Channel0_IRQHandler                 0x0800040f   Thumb Code     0  startup_stm32h723xx.o(.text)
    BDMA_Channel1_IRQHandler                 0x0800040f   Thumb Code     0  startup_stm32h723xx.o(.text)
    BDMA_Channel2_IRQHandler                 0x0800040f   Thumb Code     0  startup_stm32h723xx.o(.text)
    BDMA_Channel3_IRQHandler                 0x0800040f   Thumb Code     0  startup_stm32h723xx.o(.text)
    BDMA_Channel4_IRQHandler                 0x0800040f   Thumb Code     0  startup_stm32h723xx.o(.text)
    BDMA_Channel5_IRQHandler                 0x0800040f   Thumb Code     0  startup_stm32h723xx.o(.text)
    BDMA_Channel6_IRQHandler                 0x0800040f   Thumb Code     0  startup_stm32h723xx.o(.text)
    BDMA_Channel7_IRQHandler                 0x0800040f   Thumb Code     0  startup_stm32h723xx.o(.text)
    CEC_IRQHandler                           0x0800040f   Thumb Code     0  startup_stm32h723xx.o(.text)
    COMP1_IRQHandler                         0x0800040f   Thumb Code     0  startup_stm32h723xx.o(.text)
    CORDIC_IRQHandler                        0x0800040f   Thumb Code     0  startup_stm32h723xx.o(.text)
    CRS_IRQHandler                           0x0800040f   Thumb Code     0  startup_stm32h723xx.o(.text)
    DCMI_PSSI_IRQHandler                     0x0800040f   Thumb Code     0  startup_stm32h723xx.o(.text)
    DFSDM1_FLT0_IRQHandler                   0x0800040f   Thumb Code     0  startup_stm32h723xx.o(.text)
    DFSDM1_FLT1_IRQHandler                   0x0800040f   Thumb Code     0  startup_stm32h723xx.o(.text)
    DFSDM1_FLT2_IRQHandler                   0x0800040f   Thumb Code     0  startup_stm32h723xx.o(.text)
    DFSDM1_FLT3_IRQHandler                   0x0800040f   Thumb Code     0  startup_stm32h723xx.o(.text)
    DMA1_Stream5_IRQHandler                  0x0800040f   Thumb Code     0  startup_stm32h723xx.o(.text)
    DMA1_Stream6_IRQHandler                  0x0800040f   Thumb Code     0  startup_stm32h723xx.o(.text)
    DMA1_Stream7_IRQHandler                  0x0800040f   Thumb Code     0  startup_stm32h723xx.o(.text)
    DMA2D_IRQHandler                         0x0800040f   Thumb Code     0  startup_stm32h723xx.o(.text)
    DMA2_Stream0_IRQHandler                  0x0800040f   Thumb Code     0  startup_stm32h723xx.o(.text)
    DMA2_Stream1_IRQHandler                  0x0800040f   Thumb Code     0  startup_stm32h723xx.o(.text)
    DMA2_Stream2_IRQHandler                  0x0800040f   Thumb Code     0  startup_stm32h723xx.o(.text)
    DMA2_Stream3_IRQHandler                  0x0800040f   Thumb Code     0  startup_stm32h723xx.o(.text)
    DMA2_Stream4_IRQHandler                  0x0800040f   Thumb Code     0  startup_stm32h723xx.o(.text)
    DMA2_Stream5_IRQHandler                  0x0800040f   Thumb Code     0  startup_stm32h723xx.o(.text)
    DMA2_Stream6_IRQHandler                  0x0800040f   Thumb Code     0  startup_stm32h723xx.o(.text)
    DMA2_Stream7_IRQHandler                  0x0800040f   Thumb Code     0  startup_stm32h723xx.o(.text)
    DMAMUX1_OVR_IRQHandler                   0x0800040f   Thumb Code     0  startup_stm32h723xx.o(.text)
    DMAMUX2_OVR_IRQHandler                   0x0800040f   Thumb Code     0  startup_stm32h723xx.o(.text)
    DTS_IRQHandler                           0x0800040f   Thumb Code     0  startup_stm32h723xx.o(.text)
    ECC_IRQHandler                           0x0800040f   Thumb Code     0  startup_stm32h723xx.o(.text)
    ETH_IRQHandler                           0x0800040f   Thumb Code     0  startup_stm32h723xx.o(.text)
    ETH_WKUP_IRQHandler                      0x0800040f   Thumb Code     0  startup_stm32h723xx.o(.text)
    EXTI0_IRQHandler                         0x0800040f   Thumb Code     0  startup_stm32h723xx.o(.text)
    EXTI1_IRQHandler                         0x0800040f   Thumb Code     0  startup_stm32h723xx.o(.text)
    EXTI2_IRQHandler                         0x0800040f   Thumb Code     0  startup_stm32h723xx.o(.text)
    EXTI3_IRQHandler                         0x0800040f   Thumb Code     0  startup_stm32h723xx.o(.text)
    EXTI4_IRQHandler                         0x0800040f   Thumb Code     0  startup_stm32h723xx.o(.text)
    EXTI9_5_IRQHandler                       0x0800040f   Thumb Code     0  startup_stm32h723xx.o(.text)
    FDCAN_CAL_IRQHandler                     0x0800040f   Thumb Code     0  startup_stm32h723xx.o(.text)
    FLASH_IRQHandler                         0x0800040f   Thumb Code     0  startup_stm32h723xx.o(.text)
    FMAC_IRQHandler                          0x0800040f   Thumb Code     0  startup_stm32h723xx.o(.text)
    FMC_IRQHandler                           0x0800040f   Thumb Code     0  startup_stm32h723xx.o(.text)
    FPU_IRQHandler                           0x0800040f   Thumb Code     0  startup_stm32h723xx.o(.text)
    HSEM1_IRQHandler                         0x0800040f   Thumb Code     0  startup_stm32h723xx.o(.text)
    I2C1_ER_IRQHandler                       0x0800040f   Thumb Code     0  startup_stm32h723xx.o(.text)
    I2C1_EV_IRQHandler                       0x0800040f   Thumb Code     0  startup_stm32h723xx.o(.text)
    I2C2_ER_IRQHandler                       0x0800040f   Thumb Code     0  startup_stm32h723xx.o(.text)
    I2C2_EV_IRQHandler                       0x0800040f   Thumb Code     0  startup_stm32h723xx.o(.text)
    I2C3_ER_IRQHandler                       0x0800040f   Thumb Code     0  startup_stm32h723xx.o(.text)
    I2C3_EV_IRQHandler                       0x0800040f   Thumb Code     0  startup_stm32h723xx.o(.text)
    I2C4_ER_IRQHandler                       0x0800040f   Thumb Code     0  startup_stm32h723xx.o(.text)
    I2C4_EV_IRQHandler                       0x0800040f   Thumb Code     0  startup_stm32h723xx.o(.text)
    I2C5_ER_IRQHandler                       0x0800040f   Thumb Code     0  startup_stm32h723xx.o(.text)
    I2C5_EV_IRQHandler                       0x0800040f   Thumb Code     0  startup_stm32h723xx.o(.text)
    LPTIM1_IRQHandler                        0x0800040f   Thumb Code     0  startup_stm32h723xx.o(.text)
    LPTIM2_IRQHandler                        0x0800040f   Thumb Code     0  startup_stm32h723xx.o(.text)
    LPTIM3_IRQHandler                        0x0800040f   Thumb Code     0  startup_stm32h723xx.o(.text)
    LPTIM4_IRQHandler                        0x0800040f   Thumb Code     0  startup_stm32h723xx.o(.text)
    LPTIM5_IRQHandler                        0x0800040f   Thumb Code     0  startup_stm32h723xx.o(.text)
    LPUART1_IRQHandler                       0x0800040f   Thumb Code     0  startup_stm32h723xx.o(.text)
    LTDC_ER_IRQHandler                       0x0800040f   Thumb Code     0  startup_stm32h723xx.o(.text)
    LTDC_IRQHandler                          0x0800040f   Thumb Code     0  startup_stm32h723xx.o(.text)
    MDIOS_IRQHandler                         0x0800040f   Thumb Code     0  startup_stm32h723xx.o(.text)
    MDIOS_WKUP_IRQHandler                    0x0800040f   Thumb Code     0  startup_stm32h723xx.o(.text)
    MDMA_IRQHandler                          0x0800040f   Thumb Code     0  startup_stm32h723xx.o(.text)
    OCTOSPI1_IRQHandler                      0x0800040f   Thumb Code     0  startup_stm32h723xx.o(.text)
    OCTOSPI2_IRQHandler                      0x0800040f   Thumb Code     0  startup_stm32h723xx.o(.text)
    OTG_HS_EP1_IN_IRQHandler                 0x0800040f   Thumb Code     0  startup_stm32h723xx.o(.text)
    OTG_HS_EP1_OUT_IRQHandler                0x0800040f   Thumb Code     0  startup_stm32h723xx.o(.text)
    OTG_HS_IRQHandler                        0x0800040f   Thumb Code     0  startup_stm32h723xx.o(.text)
    OTG_HS_WKUP_IRQHandler                   0x0800040f   Thumb Code     0  startup_stm32h723xx.o(.text)
    PVD_AVD_IRQHandler                       0x0800040f   Thumb Code     0  startup_stm32h723xx.o(.text)
    RCC_IRQHandler                           0x0800040f   Thumb Code     0  startup_stm32h723xx.o(.text)
    RTC_Alarm_IRQHandler                     0x0800040f   Thumb Code     0  startup_stm32h723xx.o(.text)
    RTC_WKUP_IRQHandler                      0x0800040f   Thumb Code     0  startup_stm32h723xx.o(.text)
    SAI1_IRQHandler                          0x0800040f   Thumb Code     0  startup_stm32h723xx.o(.text)
    SAI4_IRQHandler                          0x0800040f   Thumb Code     0  startup_stm32h723xx.o(.text)
    SDMMC1_IRQHandler                        0x0800040f   Thumb Code     0  startup_stm32h723xx.o(.text)
    SDMMC2_IRQHandler                        0x0800040f   Thumb Code     0  startup_stm32h723xx.o(.text)
    SPDIF_RX_IRQHandler                      0x0800040f   Thumb Code     0  startup_stm32h723xx.o(.text)
    SPI1_IRQHandler                          0x0800040f   Thumb Code     0  startup_stm32h723xx.o(.text)
    SPI3_IRQHandler                          0x0800040f   Thumb Code     0  startup_stm32h723xx.o(.text)
    SPI4_IRQHandler                          0x0800040f   Thumb Code     0  startup_stm32h723xx.o(.text)
    SPI5_IRQHandler                          0x0800040f   Thumb Code     0  startup_stm32h723xx.o(.text)
    SPI6_IRQHandler                          0x0800040f   Thumb Code     0  startup_stm32h723xx.o(.text)
    SWPMI1_IRQHandler                        0x0800040f   Thumb Code     0  startup_stm32h723xx.o(.text)
    TAMP_STAMP_IRQHandler                    0x0800040f   Thumb Code     0  startup_stm32h723xx.o(.text)
    TIM15_IRQHandler                         0x0800040f   Thumb Code     0  startup_stm32h723xx.o(.text)
    TIM16_IRQHandler                         0x0800040f   Thumb Code     0  startup_stm32h723xx.o(.text)
    TIM17_IRQHandler                         0x0800040f   Thumb Code     0  startup_stm32h723xx.o(.text)
    TIM1_BRK_IRQHandler                      0x0800040f   Thumb Code     0  startup_stm32h723xx.o(.text)
    TIM1_CC_IRQHandler                       0x0800040f   Thumb Code     0  startup_stm32h723xx.o(.text)
    TIM1_TRG_COM_IRQHandler                  0x0800040f   Thumb Code     0  startup_stm32h723xx.o(.text)
    TIM1_UP_IRQHandler                       0x0800040f   Thumb Code     0  startup_stm32h723xx.o(.text)
    TIM23_IRQHandler                         0x0800040f   Thumb Code     0  startup_stm32h723xx.o(.text)
    TIM24_IRQHandler                         0x0800040f   Thumb Code     0  startup_stm32h723xx.o(.text)
    TIM2_IRQHandler                          0x0800040f   Thumb Code     0  startup_stm32h723xx.o(.text)
    TIM3_IRQHandler                          0x0800040f   Thumb Code     0  startup_stm32h723xx.o(.text)
    TIM4_IRQHandler                          0x0800040f   Thumb Code     0  startup_stm32h723xx.o(.text)
    TIM5_IRQHandler                          0x0800040f   Thumb Code     0  startup_stm32h723xx.o(.text)
    TIM6_DAC_IRQHandler                      0x0800040f   Thumb Code     0  startup_stm32h723xx.o(.text)
    TIM8_BRK_TIM12_IRQHandler                0x0800040f   Thumb Code     0  startup_stm32h723xx.o(.text)
    TIM8_CC_IRQHandler                       0x0800040f   Thumb Code     0  startup_stm32h723xx.o(.text)
    TIM8_TRG_COM_TIM14_IRQHandler            0x0800040f   Thumb Code     0  startup_stm32h723xx.o(.text)
    TIM8_UP_TIM13_IRQHandler                 0x0800040f   Thumb Code     0  startup_stm32h723xx.o(.text)
    UART4_IRQHandler                         0x0800040f   Thumb Code     0  startup_stm32h723xx.o(.text)
    UART8_IRQHandler                         0x0800040f   Thumb Code     0  startup_stm32h723xx.o(.text)
    UART9_IRQHandler                         0x0800040f   Thumb Code     0  startup_stm32h723xx.o(.text)
    USART6_IRQHandler                        0x0800040f   Thumb Code     0  startup_stm32h723xx.o(.text)
    WAKEUP_PIN_IRQHandler                    0x0800040f   Thumb Code     0  startup_stm32h723xx.o(.text)
    WWDG_IRQHandler                          0x0800040f   Thumb Code     0  startup_stm32h723xx.o(.text)
    __user_initial_stackheap                 0x08000411   Thumb Code     0  startup_stm32h723xx.o(.text)
    __rt_ctype_table                         0x08000439   Thumb Code    16  rt_ctype_table.o(.text)
    malloc                                   0x08000449   Thumb Code    94  h1_alloc.o(.text)
    __aeabi_uldivmod                         0x080004a7   Thumb Code     0  lludivv7m.o(.text)
    _ll_udiv                                 0x080004a7   Thumb Code   240  lludivv7m.o(.text)
    toupper                                  0x08000597   Thumb Code    30  toupper.o(.text)
    strnlen                                  0x080005b5   Thumb Code    24  strnlen.o(.text)
    strcpy                                   0x080005cd   Thumb Code    72  strcpy.o(.text)
    __aeabi_memcpy                           0x08000615   Thumb Code     0  rt_memcpy_v6.o(.text)
    __rt_memcpy                              0x08000615   Thumb Code   138  rt_memcpy_v6.o(.text)
    _memcpy_lastbytes                        0x0800067b   Thumb Code     0  rt_memcpy_v6.o(.text)
    __aeabi_memcpy4                          0x0800069f   Thumb Code     0  rt_memcpy_w.o(.text)
    __aeabi_memcpy8                          0x0800069f   Thumb Code     0  rt_memcpy_w.o(.text)
    __rt_memcpy_w                            0x0800069f   Thumb Code   100  rt_memcpy_w.o(.text)
    _memcpy_lastbytes_aligned                0x080006e7   Thumb Code     0  rt_memcpy_w.o(.text)
    __aeabi_memmove4                         0x08000703   Thumb Code     0  rt_memmove_w.o(.text)
    __aeabi_memmove8                         0x08000703   Thumb Code     0  rt_memmove_w.o(.text)
    __rt_memmove_w                           0x08000703   Thumb Code   122  rt_memmove_w.o(.text)
    __memmove_aligned                        0x08000729   Thumb Code     0  rt_memmove_w.o(.text)
    __memmove_lastfew_aligned                0x08000761   Thumb Code     0  rt_memmove_w.o(.text)
    __aeabi_memset4                          0x0800077d   Thumb Code    16  aeabi_memset4.o(.text)
    __aeabi_memset8                          0x0800077d   Thumb Code     0  aeabi_memset4.o(.text)
    __aeabi_memclr                           0x0800078d   Thumb Code     0  rt_memclr.o(.text)
    __rt_memclr                              0x0800078d   Thumb Code     0  rt_memclr.o(.text)
    _memset                                  0x08000791   Thumb Code    64  rt_memclr.o(.text)
    __aeabi_memclr4                          0x080007d1   Thumb Code     0  rt_memclr_w.o(.text)
    __aeabi_memclr8                          0x080007d1   Thumb Code     0  rt_memclr_w.o(.text)
    __rt_memclr_w                            0x080007d1   Thumb Code     0  rt_memclr_w.o(.text)
    _memset_w                                0x080007d5   Thumb Code    74  rt_memclr_w.o(.text)
    strcmp                                   0x08000821   Thumb Code   124  strcmpv7m_pel.o(.text)
    __use_two_region_memory                  0x0800089d   Thumb Code     2  heapauxi.o(.text)
    __rt_heap_escrow                         0x0800089f   Thumb Code     2  heapauxi.o(.text)
    __rt_heap_expand                         0x080008a1   Thumb Code     2  heapauxi.o(.text)
    __rt_heap_descriptor                     0x080008a5   Thumb Code     8  rt_heap_descriptor_intlibspace.o(.text)
    __rt_locale                              0x080008ad   Thumb Code     8  rt_locale_intlibspace.o(.text)
    __use_no_heap                            0x080008b5   Thumb Code     2  hguard.o(.text)
    __heap$guard                             0x080008b7   Thumb Code     2  hguard.o(.text)
    _terminate_user_alloc                    0x080008b9   Thumb Code     2  init_alloc.o(.text)
    _init_user_alloc                         0x080008bb   Thumb Code     2  init_alloc.o(.text)
    __Heap_Full                              0x080008bd   Thumb Code    34  init_alloc.o(.text)
    __Heap_Broken                            0x080008df   Thumb Code     6  init_alloc.o(.text)
    _init_alloc                              0x080008e5   Thumb Code    94  init_alloc.o(.text)
    __Heap_Initialize                        0x08000943   Thumb Code     8  h1_init.o(.text)
    __Heap_DescSize                          0x0800094b   Thumb Code     4  h1_init.o(.text)
    free                                     0x0800094f   Thumb Code    78  h1_free.o(.text)
    __read_errno                             0x0800099d   Thumb Code    10  _rserrno.o(.text)
    __set_errno                              0x080009a7   Thumb Code    12  _rserrno.o(.text)
    memchr                                   0x080009b3   Thumb Code    20  memchr.o(.text)
    __user_libspace                          0x080009c9   Thumb Code     8  libspace.o(.text)
    __user_perproc_libspace                  0x080009c9   Thumb Code     0  libspace.o(.text)
    __user_perthread_libspace                0x080009c9   Thumb Code     0  libspace.o(.text)
    __aeabi_errno_addr                       0x080009d1   Thumb Code     8  rt_errno_addr_intlibspace.o(.text)
    __errno$intlibspace                      0x080009d1   Thumb Code     0  rt_errno_addr_intlibspace.o(.text)
    __rt_errno_addr$intlibspace              0x080009d1   Thumb Code     0  rt_errno_addr_intlibspace.o(.text)
    __Heap_ProvideMemory                     0x080009d9   Thumb Code    52  h1_extend.o(.text)
    _maybe_terminate_alloc                   0x080009d9   Thumb Code     0  maybetermalloc1.o(.text)
    __rt_SIGRTMEM                            0x08000a0d   Thumb Code    14  defsig_rtmem_outer.o(.text)
    __I$use$semihosting                      0x08000a1b   Thumb Code     0  use_no_semi.o(.text)
    __use_no_semihosting_swi                 0x08000a1b   Thumb Code     2  use_no_semi.o(.text)
    __semihosting_library_function           0x08000a1d   Thumb Code     0  indicate_semi.o(.text)
    __user_setup_stackheap                   0x08000a1d   Thumb Code    74  sys_stackheap_outer.o(.text)
    exit                                     0x08000a67   Thumb Code    18  exit.o(.text)
    __sig_exit                               0x08000a79   Thumb Code    10  defsig_exit.o(.text)
    __rt_SIGRTMEM_inner                      0x08000a85   Thumb Code    22  defsig_rtmem_inner.o(.text)
    _sys_exit                                0x08000ad5   Thumb Code     8  sys_exit.o(.text)
    __default_signal_display                 0x08000ae1   Thumb Code    50  defsig_general.o(.text)
    _ttywrch                                 0x08000b13   Thumb Code    14  sys_wrch.o(.text)
    BMI088_Calibrate_IMU                     0x08000f01   Thumb Code  1952  bmi088.o(.text.BMI088_Calibrate_IMU)
    BMI088_Read_All                          0x08001b11   Thumb Code   754  bmi088.o(.text.BMI088_Read_All)
    BMI088_Register                          0x08001e09   Thumb Code   460  bmi088.o(.text.BMI088_Register)
    BMI088_Temp_Control                      0x08002049   Thumb Code   328  bmi088.o(.text.BMI088_Temp_Control)
    BusFault_Handler                         0x080022a9   Thumb Code     4  stm32h7xx_it.o(.text.BusFault_Handler)
    Buzzer_One_Note                          0x080022b1   Thumb Code   180  buzzer.o(.text.Buzzer_One_Note)
    Buzzer_Play                              0x08002369   Thumb Code   138  buzzer.o(.text.Buzzer_Play)
    Buzzer_Register                          0x080023f9   Thumb Code   132  buzzer.o(.text.Buzzer_Register)
    Buzzer_Silence                           0x08002481   Thumb Code    24  buzzer.o(.text.Buzzer_Silence)
    Buzzer_Stop                              0x080024a1   Thumb Code    62  buzzer.o(.text.Buzzer_Stop)
    Buzzer_Task                              0x080024e1   Thumb Code   150  buzzer.o(.text.Buzzer_Task)
    Buzzer_Task_Init                         0x08002579   Thumb Code    86  daemon_task.o(.text.Buzzer_Task_Init)
    CAN_Register                             0x08002829   Thumb Code   282  bsp_can.o(.text.CAN_Register)
    CAN_Transmit                             0x08002a71   Thumb Code   184  bsp_can.o(.text.CAN_Transmit)
    Chassis_Console                          0x08002bc1   Thumb Code    76  balance_chassis.o(.text.Chassis_Console)
    Chassis_Handle_Exception                 0x08003189   Thumb Code   612  balance_chassis.o(.text.Chassis_Handle_Exception)
    Chassis_Init                             0x080033f1   Thumb Code  1156  balance_chassis.o(.text.Chassis_Init)
    Chassis_Observer                         0x08004571   Thumb Code   144  balance_chassis.o(.text.Chassis_Observer)
    Chassis_Publish                          0x08004601   Thumb Code     2  chassis_task.o(.text.Chassis_Publish)
    Chassis_Reference                        0x08004609   Thumb Code  1868  balance_chassis.o(.text.Chassis_Reference)
    Chassis_Send_Cmd                         0x08004d69   Thumb Code  3400  balance_chassis.o(.text.Chassis_Send_Cmd)
    Chassis_Set_Mode                         0x08005ab9   Thumb Code  1768  balance_chassis.o(.text.Chassis_Set_Mode)
    Chassis_Task_Init                        0x08006811   Thumb Code   136  chassis_task.o(.text.Chassis_Task_Init)
    Cross3d                                  0x08006909   Thumb Code   114  user_lib.o(.text.Cross3d)
    DJI_Motor_Control                        0x08006981   Thumb Code   924  dji_motor.o(.text.DJI_Motor_Control)
    DJI_Motor_Disable                        0x08006d29   Thumb Code    16  dji_motor.o(.text.DJI_Motor_Disable)
    DJI_Motor_Enable                         0x08006d39   Thumb Code    16  dji_motor.o(.text.DJI_Motor_Enable)
    DJI_Motor_Error_Judge                    0x08006d49   Thumb Code   516  dji_motor.o(.text.DJI_Motor_Error_Judge)
    DJI_Motor_GetVal                         0x08006f51   Thumb Code   292  dji_motor.o(.text.DJI_Motor_GetVal)
    DJI_Motor_Init                           0x08007089   Thumb Code   264  dji_motor.o(.text.DJI_Motor_Init)
    DMA1_Stream0_IRQHandler                  0x080071d9   Thumb Code    16  stm32h7xx_it.o(.text.DMA1_Stream0_IRQHandler)
    DMA1_Stream1_IRQHandler                  0x080071e9   Thumb Code    16  stm32h7xx_it.o(.text.DMA1_Stream1_IRQHandler)
    DMA1_Stream2_IRQHandler                  0x080071f9   Thumb Code    16  stm32h7xx_it.o(.text.DMA1_Stream2_IRQHandler)
    DMA1_Stream3_IRQHandler                  0x08007209   Thumb Code    16  stm32h7xx_it.o(.text.DMA1_Stream3_IRQHandler)
    DMA1_Stream4_IRQHandler                  0x08007219   Thumb Code    16  stm32h7xx_it.o(.text.DMA1_Stream4_IRQHandler)
    DM_MIT_Ctrl                              0x08007ca9   Thumb Code   308  dm_motor.o(.text.DM_MIT_Ctrl)
    DM_Motor_Control                         0x08007e01   Thumb Code   988  dm_motor.o(.text.DM_Motor_Control)
    DM_Motor_Disable                         0x08008369   Thumb Code    82  dm_motor.o(.text.DM_Motor_Disable)
    DM_Motor_Enable                          0x080083c1   Thumb Code    82  dm_motor.o(.text.DM_Motor_Enable)
    DM_Motor_Error_Judge                     0x08008419   Thumb Code   332  dm_motor.o(.text.DM_Motor_Error_Judge)
    DM_Motor_Init                            0x08008569   Thumb Code   300  dm_motor.o(.text.DM_Motor_Init)
    DM_Motor_Set_Zeropoint                   0x080086f1   Thumb Code    18  dm_motor.o(.text.DM_Motor_Set_Zeropoint)
    DM_Motor_Start                           0x08008709   Thumb Code    80  dm_motor.o(.text.DM_Motor_Start)
    DM_Motor_Stop                            0x08008759   Thumb Code    80  dm_motor.o(.text.DM_Motor_Stop)
    DM_Pos_Speed_Ctrl                        0x080087a9   Thumb Code   148  dm_motor.o(.text.DM_Pos_Speed_Ctrl)
    DM_Speed_Ctrl                            0x08008841   Thumb Code    92  dm_motor.o(.text.DM_Speed_Ctrl)
    DWT_Delay                                0x08008909   Thumb Code    88  bsp_dwt.o(.text.DWT_Delay)
    DWT_GetDeltaT                            0x08008961   Thumb Code    76  bsp_dwt.o(.text.DWT_GetDeltaT)
    DWT_GetTimeline_ms                       0x080089b1   Thumb Code    68  bsp_dwt.o(.text.DWT_GetTimeline_ms)
    DWT_GetTimeline_s                        0x080089f9   Thumb Code    72  bsp_dwt.o(.text.DWT_GetTimeline_s)
    DWT_Init                                 0x08008a49   Thumb Code   142  bsp_dwt.o(.text.DWT_Init)
    DebugMon_Handler                         0x08008bd9   Thumb Code     2  stm32h7xx_it.o(.text.DebugMon_Handler)
    Digital_PID_Position                     0x08008e29   Thumb Code   522  digital_pid.o(.text.Digital_PID_Position)
    Dot3d                                    0x08009039   Thumb Code    50  user_lib.o(.text.Dot3d)
    EXTI15_10_IRQHandler                     0x080091e9   Thumb Code    20  stm32h7xx_it.o(.text.EXTI15_10_IRQHandler)
    Error_Handler                            0x08009309   Thumb Code    14  main.o(.text.Error_Handler)
    ExitRun0Mode                             0x08009319   Thumb Code    40  system_stm32h7xx.o(.text.ExitRun0Mode)
    FDCAN1_IT0_IRQHandler                    0x08009341   Thumb Code    16  stm32h7xx_it.o(.text.FDCAN1_IT0_IRQHandler)
    FDCAN1_IT1_IRQHandler                    0x08009351   Thumb Code    16  stm32h7xx_it.o(.text.FDCAN1_IT1_IRQHandler)
    FDCAN2_IT0_IRQHandler                    0x08009361   Thumb Code    16  stm32h7xx_it.o(.text.FDCAN2_IT0_IRQHandler)
    FDCAN2_IT1_IRQHandler                    0x08009371   Thumb Code    16  stm32h7xx_it.o(.text.FDCAN2_IT1_IRQHandler)
    FDCAN3_IT0_IRQHandler                    0x08009381   Thumb Code    16  stm32h7xx_it.o(.text.FDCAN3_IT0_IRQHandler)
    FDCAN3_IT1_IRQHandler                    0x08009391   Thumb Code    16  stm32h7xx_it.o(.text.FDCAN3_IT1_IRQHandler)
    GPIO_Register                            0x08009c39   Thumb Code   108  bsp_gpio.o(.text.GPIO_Register)
    Gimbal_Console                           0x08009ca9   Thumb Code     2  gimbal_task.o(.text.Gimbal_Console)
    Gimbal_Handle_Exception                  0x08009cb1   Thumb Code     2  gimbal_task.o(.text.Gimbal_Handle_Exception)
    Gimbal_Observer                          0x08009cb9   Thumb Code     2  gimbal_task.o(.text.Gimbal_Observer)
    Gimbal_Publish                           0x08009cc1   Thumb Code     2  gimbal_task.o(.text.Gimbal_Publish)
    Gimbal_Reference                         0x08009cc9   Thumb Code     2  gimbal_task.o(.text.Gimbal_Reference)
    Gimbal_Send_Cmd                          0x08009cd1   Thumb Code     2  gimbal_task.o(.text.Gimbal_Send_Cmd)
    Gimbal_Set_Mode                          0x08009cd9   Thumb Code     2  gimbal_task.o(.text.Gimbal_Set_Mode)
    Gimbal_Task_Init                         0x08009d49   Thumb Code   136  gimbal_task.o(.text.Gimbal_Task_Init)
    HAL_DMA_Abort                            0x08009dd1   Thumb Code  2424  stm32h7xx_hal_dma.o(.text.HAL_DMA_Abort)
    HAL_DMA_Abort_IT                         0x0800a749   Thumb Code  1706  stm32h7xx_hal_dma.o(.text.HAL_DMA_Abort_IT)
    HAL_DMA_DeInit                           0x0800adf9   Thumb Code  1148  stm32h7xx_hal_dma.o(.text.HAL_DMA_DeInit)
    HAL_DMA_GetError                         0x0800b279   Thumb Code    12  stm32h7xx_hal_dma.o(.text.HAL_DMA_GetError)
    HAL_DMA_IRQHandler                       0x0800b289   Thumb Code  4544  stm32h7xx_hal_dma.o(.text.HAL_DMA_IRQHandler)
    HAL_DMA_Init                             0x0800c449   Thumb Code  2400  stm32h7xx_hal_dma.o(.text.HAL_DMA_Init)
    HAL_DMA_Start_IT                         0x0800cda9   Thumb Code  1794  stm32h7xx_hal_dma.o(.text.HAL_DMA_Start_IT)
    HAL_FDCAN_AbortTxRequest                 0x0800d4b1   Thumb Code    66  stm32h7xx_hal_fdcan.o(.text.HAL_FDCAN_AbortTxRequest)
    HAL_FDCAN_ActivateNotification           0x0800d4f9   Thumb Code   254  stm32h7xx_hal_fdcan.o(.text.HAL_FDCAN_ActivateNotification)
    HAL_FDCAN_AddMessageToTxFifoQ            0x0800d5f9   Thumb Code   202  stm32h7xx_hal_fdcan.o(.text.HAL_FDCAN_AddMessageToTxFifoQ)
    HAL_FDCAN_ClockCalibrationCallback       0x0800d6c9   Thumb Code    10  stm32h7xx_hal_fdcan.o(.text.HAL_FDCAN_ClockCalibrationCallback)
    HAL_FDCAN_ConfigFifoWatermark            0x0800d6d9   Thumb Code   168  stm32h7xx_hal_fdcan.o(.text.HAL_FDCAN_ConfigFifoWatermark)
    HAL_FDCAN_ConfigFilter                   0x0800d781   Thumb Code   278  stm32h7xx_hal_fdcan.o(.text.HAL_FDCAN_ConfigFilter)
    HAL_FDCAN_ConfigGlobalFilter             0x0800d899   Thumb Code    92  stm32h7xx_hal_fdcan.o(.text.HAL_FDCAN_ConfigGlobalFilter)
    HAL_FDCAN_ConfigRxFifoOverwrite          0x0800d8f9   Thumb Code   122  stm32h7xx_hal_fdcan.o(.text.HAL_FDCAN_ConfigRxFifoOverwrite)
    HAL_FDCAN_ErrorCallback                  0x0800d979   Thumb Code     8  stm32h7xx_hal_fdcan.o(.text.HAL_FDCAN_ErrorCallback)
    HAL_FDCAN_ErrorStatusCallback            0x0800d981   Thumb Code    10  stm32h7xx_hal_fdcan.o(.text.HAL_FDCAN_ErrorStatusCallback)
    HAL_FDCAN_GetRxFifoFillLevel             0x0800d991   Thumb Code    52  stm32h7xx_hal_fdcan.o(.text.HAL_FDCAN_GetRxFifoFillLevel)
    HAL_FDCAN_GetRxMessage                   0x0800d9c9   Thumb Code   760  stm32h7xx_hal_fdcan.o(.text.HAL_FDCAN_GetRxMessage)
    HAL_FDCAN_GetTxFifoFreeLevel             0x0800dcc1   Thumb Code    24  stm32h7xx_hal_fdcan.o(.text.HAL_FDCAN_GetTxFifoFreeLevel)
    HAL_FDCAN_HighPriorityMessageCallback    0x0800dcd9   Thumb Code     8  stm32h7xx_hal_fdcan.o(.text.HAL_FDCAN_HighPriorityMessageCallback)
    HAL_FDCAN_IRQHandler                     0x0800dce1   Thumb Code  1506  stm32h7xx_hal_fdcan.o(.text.HAL_FDCAN_IRQHandler)
    HAL_FDCAN_Init                           0x0800e2c9   Thumb Code   992  stm32h7xx_hal_fdcan.o(.text.HAL_FDCAN_Init)
    HAL_FDCAN_MspInit                        0x0800e6a9   Thumb Code   660  fdcan.o(.text.HAL_FDCAN_MspInit)
    HAL_FDCAN_RxBufferNewMessageCallback     0x0800e941   Thumb Code     8  stm32h7xx_hal_fdcan.o(.text.HAL_FDCAN_RxBufferNewMessageCallback)
    HAL_FDCAN_RxFifo0Callback                0x0800e949   Thumb Code    20  bsp_can.o(.text.HAL_FDCAN_RxFifo0Callback)
    HAL_FDCAN_RxFifo1Callback                0x0800e961   Thumb Code    20  bsp_can.o(.text.HAL_FDCAN_RxFifo1Callback)
    HAL_FDCAN_Start                          0x0800e979   Thumb Code    80  stm32h7xx_hal_fdcan.o(.text.HAL_FDCAN_Start)
    HAL_FDCAN_Stop                           0x0800e9c9   Thumb Code   234  stm32h7xx_hal_fdcan.o(.text.HAL_FDCAN_Stop)
    HAL_FDCAN_TT_GlobalTimeCallback          0x0800eab9   Thumb Code    10  stm32h7xx_hal_fdcan.o(.text.HAL_FDCAN_TT_GlobalTimeCallback)
    HAL_FDCAN_TT_ScheduleSyncCallback        0x0800eac9   Thumb Code    10  stm32h7xx_hal_fdcan.o(.text.HAL_FDCAN_TT_ScheduleSyncCallback)
    HAL_FDCAN_TT_StopWatchCallback           0x0800ead9   Thumb Code    12  stm32h7xx_hal_fdcan.o(.text.HAL_FDCAN_TT_StopWatchCallback)
    HAL_FDCAN_TT_TimeMarkCallback            0x0800eae9   Thumb Code    10  stm32h7xx_hal_fdcan.o(.text.HAL_FDCAN_TT_TimeMarkCallback)
    HAL_FDCAN_TimeoutOccurredCallback        0x0800eaf9   Thumb Code     8  stm32h7xx_hal_fdcan.o(.text.HAL_FDCAN_TimeoutOccurredCallback)
    HAL_FDCAN_TimestampWraparoundCallback    0x0800eb01   Thumb Code     8  stm32h7xx_hal_fdcan.o(.text.HAL_FDCAN_TimestampWraparoundCallback)
    HAL_FDCAN_TxBufferAbortCallback          0x0800eb09   Thumb Code    10  stm32h7xx_hal_fdcan.o(.text.HAL_FDCAN_TxBufferAbortCallback)
    HAL_FDCAN_TxBufferCompleteCallback       0x0800eb19   Thumb Code    10  stm32h7xx_hal_fdcan.o(.text.HAL_FDCAN_TxBufferCompleteCallback)
    HAL_FDCAN_TxEventFifoCallback            0x0800eb29   Thumb Code    10  stm32h7xx_hal_fdcan.o(.text.HAL_FDCAN_TxEventFifoCallback)
    HAL_FDCAN_TxFifoEmptyCallback            0x0800eb39   Thumb Code     8  stm32h7xx_hal_fdcan.o(.text.HAL_FDCAN_TxFifoEmptyCallback)
    HAL_GPIO_DeInit                          0x0800eb41   Thumb Code   554  stm32h7xx_hal_gpio.o(.text.HAL_GPIO_DeInit)
    HAL_GPIO_EXTI_Callback                   0x0800ed71   Thumb Code    92  bsp_gpio.o(.text.HAL_GPIO_EXTI_Callback)
    HAL_GPIO_EXTI_IRQHandler                 0x0800edd1   Thumb Code    52  stm32h7xx_hal_gpio.o(.text.HAL_GPIO_EXTI_IRQHandler)
    HAL_GPIO_Init                            0x0800ee09   Thumb Code   936  stm32h7xx_hal_gpio.o(.text.HAL_GPIO_Init)
    HAL_GPIO_ReadPin                         0x0800f1b1   Thumb Code    46  stm32h7xx_hal_gpio.o(.text.HAL_GPIO_ReadPin)
    HAL_GPIO_WritePin                        0x0800f1e1   Thumb Code    46  stm32h7xx_hal_gpio.o(.text.HAL_GPIO_WritePin)
    HAL_GetTick                              0x0800f211   Thumb Code    12  stm32h7xx_hal.o(.text.HAL_GetTick)
    HAL_I2CEx_ConfigAnalogFilter             0x0800f221   Thumb Code   152  stm32h7xx_hal_i2c_ex.o(.text.HAL_I2CEx_ConfigAnalogFilter)
    HAL_I2CEx_ConfigDigitalFilter            0x0800f2b9   Thumb Code   162  stm32h7xx_hal_i2c_ex.o(.text.HAL_I2CEx_ConfigDigitalFilter)
    HAL_I2C_Init                             0x0800f361   Thumb Code   276  stm32h7xx_hal_i2c.o(.text.HAL_I2C_Init)
    HAL_I2C_MspInit                          0x0800f479   Thumb Code   170  i2c.o(.text.HAL_I2C_MspInit)
    HAL_IncTick                              0x0800f529   Thumb Code    26  stm32h7xx_hal.o(.text.HAL_IncTick)
    HAL_Init                                 0x0800f549   Thumb Code   122  stm32h7xx_hal.o(.text.HAL_Init)
    HAL_InitTick                             0x0800f5c9   Thumb Code   220  stm32h7xx_hal_timebase_tim.o(.text.HAL_InitTick)
    HAL_MspInit                              0x0800f6a9   Thumb Code    50  stm32h7xx_hal_msp.o(.text.HAL_MspInit)
    HAL_NVIC_DisableIRQ                      0x0800f6e1   Thumb Code    20  stm32h7xx_hal_cortex.o(.text.HAL_NVIC_DisableIRQ)
    HAL_NVIC_EnableIRQ                       0x0800f6f9   Thumb Code    20  stm32h7xx_hal_cortex.o(.text.HAL_NVIC_EnableIRQ)
    HAL_NVIC_SetPriority                     0x0800f711   Thumb Code    46  stm32h7xx_hal_cortex.o(.text.HAL_NVIC_SetPriority)
    HAL_NVIC_SetPriorityGrouping             0x0800f741   Thumb Code    16  stm32h7xx_hal_cortex.o(.text.HAL_NVIC_SetPriorityGrouping)
    HAL_PWREx_ConfigSupply                   0x0800f751   Thumb Code   162  stm32h7xx_hal_pwr_ex.o(.text.HAL_PWREx_ConfigSupply)
    HAL_RCCEx_GetD3PCLK1Freq                 0x0800f7f9   Thumb Code    38  stm32h7xx_hal_rcc_ex.o(.text.HAL_RCCEx_GetD3PCLK1Freq)
    HAL_RCCEx_GetPLL2ClockFreq               0x0800f821   Thumb Code   648  stm32h7xx_hal_rcc_ex.o(.text.HAL_RCCEx_GetPLL2ClockFreq)
    HAL_RCCEx_GetPLL3ClockFreq               0x0800fab9   Thumb Code   648  stm32h7xx_hal_rcc_ex.o(.text.HAL_RCCEx_GetPLL3ClockFreq)
    HAL_RCCEx_PeriphCLKConfig                0x0800fd51   Thumb Code  4076  stm32h7xx_hal_rcc_ex.o(.text.HAL_RCCEx_PeriphCLKConfig)
    HAL_RCC_ClockConfig                      0x08010d41   Thumb Code  1176  stm32h7xx_hal_rcc.o(.text.HAL_RCC_ClockConfig)
    HAL_RCC_GetClockConfig                   0x080111d9   Thumb Code   136  stm32h7xx_hal_rcc.o(.text.HAL_RCC_GetClockConfig)
    HAL_RCC_GetHCLKFreq                      0x08011261   Thumb Code    86  stm32h7xx_hal_rcc.o(.text.HAL_RCC_GetHCLKFreq)
    HAL_RCC_GetPCLK1Freq                     0x080112b9   Thumb Code    38  stm32h7xx_hal_rcc.o(.text.HAL_RCC_GetPCLK1Freq)
    HAL_RCC_GetPCLK2Freq                     0x080112e1   Thumb Code    38  stm32h7xx_hal_rcc.o(.text.HAL_RCC_GetPCLK2Freq)
    HAL_RCC_GetSysClockFreq                  0x08011309   Thumb Code   748  stm32h7xx_hal_rcc.o(.text.HAL_RCC_GetSysClockFreq)
    HAL_RCC_OscConfig                        0x08011609   Thumb Code  2592  stm32h7xx_hal_rcc.o(.text.HAL_RCC_OscConfig)
    HAL_RNG_ErrorCallback                    0x08012029   Thumb Code     8  stm32h7xx_hal_rng.o(.text.HAL_RNG_ErrorCallback)
    HAL_RNG_IRQHandler                       0x08012031   Thumb Code   216  stm32h7xx_hal_rng.o(.text.HAL_RNG_IRQHandler)
    HAL_RNG_Init                             0x08012109   Thumb Code   342  stm32h7xx_hal_rng.o(.text.HAL_RNG_Init)
    HAL_RNG_MspInit                          0x08012261   Thumb Code   114  rng.o(.text.HAL_RNG_MspInit)
    HAL_RNG_ReadyDataCallback                0x080122d9   Thumb Code    10  stm32h7xx_hal_rng.o(.text.HAL_RNG_ReadyDataCallback)
    HAL_RS485Ex_Init                         0x080122e9   Thumb Code   208  stm32h7xx_hal_uart_ex.o(.text.HAL_RS485Ex_Init)
    HAL_SPI_ErrorCallback                    0x080123b9   Thumb Code     8  stm32h7xx_hal_spi.o(.text.HAL_SPI_ErrorCallback)
    HAL_SPI_IRQHandler                       0x080123c1   Thumb Code   912  stm32h7xx_hal_spi.o(.text.HAL_SPI_IRQHandler)
    HAL_SPI_Init                             0x08012751   Thumb Code   658  stm32h7xx_hal_spi.o(.text.HAL_SPI_Init)
    HAL_SPI_MspInit                          0x080129e9   Thumb Code   604  spi.o(.text.HAL_SPI_MspInit)
    HAL_SPI_RxCpltCallback                   0x08012c49   Thumb Code   156  bsp_spi.o(.text.HAL_SPI_RxCpltCallback)
    HAL_SPI_SuspendCallback                  0x08012ce9   Thumb Code     8  stm32h7xx_hal_spi.o(.text.HAL_SPI_SuspendCallback)
    HAL_SPI_Transmit                         0x08012cf1   Thumb Code   996  stm32h7xx_hal_spi.o(.text.HAL_SPI_Transmit)
    HAL_SPI_TransmitReceive                  0x080130d9   Thumb Code  1796  stm32h7xx_hal_spi.o(.text.HAL_SPI_TransmitReceive)
    HAL_SPI_TransmitReceive_DMA              0x080137e1   Thumb Code   926  stm32h7xx_hal_spi.o(.text.HAL_SPI_TransmitReceive_DMA)
    HAL_SPI_TransmitReceive_IT               0x08013b81   Thumb Code   586  stm32h7xx_hal_spi.o(.text.HAL_SPI_TransmitReceive_IT)
    HAL_SPI_Transmit_DMA                     0x08013dd1   Thumb Code   682  stm32h7xx_hal_spi.o(.text.HAL_SPI_Transmit_DMA)
    HAL_SPI_Transmit_IT                      0x08014081   Thumb Code   362  stm32h7xx_hal_spi.o(.text.HAL_SPI_Transmit_IT)
    HAL_SPI_TxCpltCallback                   0x080141f1   Thumb Code     8  stm32h7xx_hal_spi.o(.text.HAL_SPI_TxCpltCallback)
    HAL_SPI_TxHalfCpltCallback               0x080141f9   Thumb Code     8  stm32h7xx_hal_spi.o(.text.HAL_SPI_TxHalfCpltCallback)
    HAL_SPI_TxRxCpltCallback                 0x08014201   Thumb Code    16  bsp_spi.o(.text.HAL_SPI_TxRxCpltCallback)
    HAL_SPI_TxRxHalfCpltCallback             0x08014211   Thumb Code     8  stm32h7xx_hal_spi.o(.text.HAL_SPI_TxRxHalfCpltCallback)
    HAL_SYSCFG_AnalogSwitchConfig            0x08014219   Thumb Code    30  stm32h7xx_hal.o(.text.HAL_SYSCFG_AnalogSwitchConfig)
    HAL_TIMEx_Break2Callback                 0x08014239   Thumb Code     8  stm32h7xx_hal_tim_ex.o(.text.HAL_TIMEx_Break2Callback)
    HAL_TIMEx_BreakCallback                  0x08014241   Thumb Code     8  stm32h7xx_hal_tim_ex.o(.text.HAL_TIMEx_BreakCallback)
    HAL_TIMEx_CommutCallback                 0x08014249   Thumb Code     8  stm32h7xx_hal_tim_ex.o(.text.HAL_TIMEx_CommutCallback)
    HAL_TIMEx_ConfigBreakDeadTime            0x08014251   Thumb Code   302  stm32h7xx_hal_tim_ex.o(.text.HAL_TIMEx_ConfigBreakDeadTime)
    HAL_TIMEx_MasterConfigSynchronization    0x08014381   Thumb Code   380  stm32h7xx_hal_tim_ex.o(.text.HAL_TIMEx_MasterConfigSynchronization)
    HAL_TIM_Base_Init                        0x08014501   Thumb Code   168  stm32h7xx_hal_tim.o(.text.HAL_TIM_Base_Init)
    HAL_TIM_Base_MspInit                     0x080145a9   Thumb Code     8  stm32h7xx_hal_tim.o(.text.HAL_TIM_Base_MspInit)
    HAL_TIM_Base_Start_IT                    0x080145b1   Thumb Code   296  stm32h7xx_hal_tim.o(.text.HAL_TIM_Base_Start_IT)
    HAL_TIM_IC_CaptureCallback               0x080146d9   Thumb Code     8  stm32h7xx_hal_tim.o(.text.HAL_TIM_IC_CaptureCallback)
    HAL_TIM_IRQHandler                       0x080146e1   Thumb Code   592  stm32h7xx_hal_tim.o(.text.HAL_TIM_IRQHandler)
    HAL_TIM_MspPostInit                      0x08014931   Thumb Code   344  tim.o(.text.HAL_TIM_MspPostInit)
    HAL_TIM_OC_DelayElapsedCallback          0x08014a89   Thumb Code     8  stm32h7xx_hal_tim.o(.text.HAL_TIM_OC_DelayElapsedCallback)
    HAL_TIM_PWM_ConfigChannel                0x08014a91   Thumb Code   432  stm32h7xx_hal_tim.o(.text.HAL_TIM_PWM_ConfigChannel)
    HAL_TIM_PWM_Init                         0x08014c41   Thumb Code   168  stm32h7xx_hal_tim.o(.text.HAL_TIM_PWM_Init)
    HAL_TIM_PWM_MspInit                      0x08014ce9   Thumb Code   206  tim.o(.text.HAL_TIM_PWM_MspInit)
    HAL_TIM_PWM_PulseFinishedCallback        0x08014db9   Thumb Code   158  bsp_pwm.o(.text.HAL_TIM_PWM_PulseFinishedCallback)
    HAL_TIM_PWM_Start                        0x08014e59   Thumb Code   674  stm32h7xx_hal_tim.o(.text.HAL_TIM_PWM_Start)
    HAL_TIM_PeriodElapsedCallback            0x08015101   Thumb Code    34  main.o(.text.HAL_TIM_PeriodElapsedCallback)
    HAL_TIM_TriggerCallback                  0x08015129   Thumb Code     8  stm32h7xx_hal_tim.o(.text.HAL_TIM_TriggerCallback)
    HAL_UARTEx_DisableFifoMode               0x08015131   Thumb Code   124  stm32h7xx_hal_uart_ex.o(.text.HAL_UARTEx_DisableFifoMode)
    HAL_UARTEx_ReceiveToIdle_DMA             0x080151b1   Thumb Code   176  stm32h7xx_hal_uart_ex.o(.text.HAL_UARTEx_ReceiveToIdle_DMA)
    HAL_UARTEx_RxEventCallback               0x08015261   Thumb Code   928  bsp_usart.o(.text.HAL_UARTEx_RxEventCallback)
    HAL_UARTEx_RxFifoFullCallback            0x08015601   Thumb Code     8  stm32h7xx_hal_uart_ex.o(.text.HAL_UARTEx_RxFifoFullCallback)
    HAL_UARTEx_SetRxFifoThreshold            0x08015609   Thumb Code   140  stm32h7xx_hal_uart_ex.o(.text.HAL_UARTEx_SetRxFifoThreshold)
    HAL_UARTEx_SetTxFifoThreshold            0x08015699   Thumb Code   140  stm32h7xx_hal_uart_ex.o(.text.HAL_UARTEx_SetTxFifoThreshold)
    HAL_UARTEx_TxFifoEmptyCallback           0x08015729   Thumb Code     8  stm32h7xx_hal_uart_ex.o(.text.HAL_UARTEx_TxFifoEmptyCallback)
    HAL_UARTEx_WakeupCallback                0x08015731   Thumb Code     8  stm32h7xx_hal_uart_ex.o(.text.HAL_UARTEx_WakeupCallback)
    HAL_UART_DMAStop                         0x08015739   Thumb Code   288  stm32h7xx_hal_uart.o(.text.HAL_UART_DMAStop)
    HAL_UART_DeInit                          0x08015859   Thumb Code   124  stm32h7xx_hal_uart.o(.text.HAL_UART_DeInit)
    HAL_UART_ErrorCallback                   0x080158d9   Thumb Code  1120  bsp_usart.o(.text.HAL_UART_ErrorCallback)
    HAL_UART_IRQHandler                      0x08015d39   Thumb Code  1790  stm32h7xx_hal_uart.o(.text.HAL_UART_IRQHandler)
    HAL_UART_Init                            0x08016439   Thumb Code   170  stm32h7xx_hal_uart.o(.text.HAL_UART_Init)
    HAL_UART_MspDeInit                       0x080164e9   Thumb Code   420  usart.o(.text.HAL_UART_MspDeInit)
    HAL_UART_MspInit                         0x08016691   Thumb Code  1416  usart.o(.text.HAL_UART_MspInit)
    HAL_UART_RxCpltCallback                  0x08016c19   Thumb Code     8  stm32h7xx_hal_uart.o(.text.HAL_UART_RxCpltCallback)
    HAL_UART_RxHalfCpltCallback              0x08016c21   Thumb Code     8  stm32h7xx_hal_uart.o(.text.HAL_UART_RxHalfCpltCallback)
    HAL_UART_Transmit                        0x08016c29   Thumb Code   312  stm32h7xx_hal_uart.o(.text.HAL_UART_Transmit)
    HAL_UART_Transmit_DMA                    0x08016d61   Thumb Code   264  stm32h7xx_hal_uart.o(.text.HAL_UART_Transmit_DMA)
    HAL_UART_Transmit_IT                     0x08016e69   Thumb Code   304  stm32h7xx_hal_uart.o(.text.HAL_UART_Transmit_IT)
    HAL_UART_TxCpltCallback                  0x08016f99   Thumb Code     8  stm32h7xx_hal_uart.o(.text.HAL_UART_TxCpltCallback)
    HAL_UART_TxHalfCpltCallback              0x08016fa1   Thumb Code     8  stm32h7xx_hal_uart.o(.text.HAL_UART_TxHalfCpltCallback)
    HardFault_Handler                        0x08017139   Thumb Code     4  stm32h7xx_it.o(.text.HardFault_Handler)
    IMU_QuaternionEKF_Init                   0x080173a1   Thumb Code   334  quaternionekf.o(.text.IMU_QuaternionEKF_Init)
    IMU_QuaternionEKF_Update                 0x080176a1   Thumb Code  1480  quaternionekf.o(.text.IMU_QuaternionEKF_Update)
    INS_Calculate                            0x080182e1   Thumb Code  1028  ins.o(.text.INS_Calculate)
    INS_Data_Update                          0x08018701   Thumb Code   212  ins.o(.text.INS_Data_Update)
    INS_Init                                 0x080187e1   Thumb Code    76  ins.o(.text.INS_Init)
    INS_Task_Init                            0x08018891   Thumb Code   136  ins_task.o(.text.INS_Task_Init)
    Inverse_Kinematics                       0x08018919   Thumb Code   584  vmc.o(.text.Inverse_Kinematics)
    Judge_IF_NAN                             0x08018b71   Thumb Code    54  user_lib.o(.text.Judge_IF_NAN)
    Kalman_Filter_Init                       0x08018ba9   Thumb Code  1522  kalman_filter.o(.text.Kalman_Filter_Init)
    Kalman_Filter_Measure                    0x080191a1   Thumb Code    98  kalman_filter.o(.text.Kalman_Filter_Measure)
    Kalman_Filter_P_Update                   0x08019209   Thumb Code   128  kalman_filter.o(.text.Kalman_Filter_P_Update)
    Kalman_Filter_PminusUpdate               0x08019289   Thumb Code   126  kalman_filter.o(.text.Kalman_Filter_PminusUpdate)
    Kalman_Filter_SetK                       0x08019309   Thumb Code   250  kalman_filter.o(.text.Kalman_Filter_SetK)
    Kalman_Filter_Update                     0x08019409   Thumb Code   400  kalman_filter.o(.text.Kalman_Filter_Update)
    Kalman_Filter_xhatMinusUpdate            0x08019599   Thumb Code   162  kalman_filter.o(.text.Kalman_Filter_xhatMinusUpdate)
    Kalman_Filter_xhatUpdate                 0x08019641   Thumb Code   172  kalman_filter.o(.text.Kalman_Filter_xhatUpdate)
    Kalman_One_Filter                        0x080196f1   Thumb Code   152  kalman_one_filter.o(.text.Kalman_One_Filter)
    Kalman_One_Init                          0x08019789   Thumb Code    50  kalman_one_filter.o(.text.Kalman_One_Init)
    LQR_K_Calc                               0x080197c1   Thumb Code    58  vmc.o(.text.LQR_K_Calc)
    Leg_Force_Calc                           0x08019801   Thumb Code   340  vmc.o(.text.Leg_Force_Calc)
    MX_DMA_Init                              0x080199b9   Thumb Code   132  dma.o(.text.MX_DMA_Init)
    MX_FDCAN1_Init                           0x08019a41   Thumb Code   130  fdcan.o(.text.MX_FDCAN1_Init)
    MX_FDCAN2_Init                           0x08019ac9   Thumb Code   130  fdcan.o(.text.MX_FDCAN2_Init)
    MX_FDCAN3_Init                           0x08019b51   Thumb Code   126  fdcan.o(.text.MX_FDCAN3_Init)
    MX_FREERTOS_Init                         0x08019bd1   Thumb Code    36  freertos.o(.text.MX_FREERTOS_Init)
    MX_GPIO_Init                             0x08019bf9   Thumb Code   308  gpio.o(.text.MX_GPIO_Init)
    MX_I2C2_Init                             0x08019d31   Thumb Code   118  i2c.o(.text.MX_I2C2_Init)
    MX_RNG_Init                              0x08019da9   Thumb Code    40  rng.o(.text.MX_RNG_Init)
    MX_SPI2_Init                             0x08019dd1   Thumb Code   114  spi.o(.text.MX_SPI2_Init)
    MX_SPI6_Init                             0x08019e49   Thumb Code   114  spi.o(.text.MX_SPI6_Init)
    MX_TIM12_Init                            0x08019ec1   Thumb Code   164  tim.o(.text.MX_TIM12_Init)
    MX_TIM1_Init                             0x08019f69   Thumb Code   260  tim.o(.text.MX_TIM1_Init)
    MX_TIM2_Init                             0x0801a071   Thumb Code   178  tim.o(.text.MX_TIM2_Init)
    MX_TIM3_Init                             0x0801a129   Thumb Code   160  tim.o(.text.MX_TIM3_Init)
    MX_UART5_Init                            0x0801a1c9   Thumb Code   160  usart.o(.text.MX_UART5_Init)
    MX_UART7_Init                            0x0801a269   Thumb Code   142  usart.o(.text.MX_UART7_Init)
    MX_USART10_UART_Init                     0x0801a2f9   Thumb Code   142  usart.o(.text.MX_USART10_UART_Init)
    MX_USART1_UART_Init                      0x0801a389   Thumb Code   142  usart.o(.text.MX_USART1_UART_Init)
    MX_USART2_UART_Init                      0x0801a419   Thumb Code   146  usart.o(.text.MX_USART2_UART_Init)
    MX_USART3_UART_Init                      0x0801a4b1   Thumb Code   146  usart.o(.text.MX_USART3_UART_Init)
    MemManage_Handler                        0x0801a549   Thumb Code     4  stm32h7xx_it.o(.text.MemManage_Handler)
    NMI_Handler                              0x0801a8d1   Thumb Code     4  stm32h7xx_it.o(.text.NMI_Handler)
    Nlms_Filter                              0x0801a949   Thumb Code   576  lms.o(.text.Nlms_Filter)
    Nlms_Init                                0x0801ab91   Thumb Code   218  lms.o(.text.Nlms_Init)
    Norm3d                                   0x0801ac71   Thumb Code   100  user_lib.o(.text.Norm3d)
    NormOf3d                                 0x0801acd9   Thumb Code    40  user_lib.o(.text.NormOf3d)
    PID_Increment                            0x0801af99   Thumb Code   342  pid.o(.text.PID_Increment)
    PID_Init                                 0x0801b0f1   Thumb Code    96  pid.o(.text.PID_Init)
    PID_Position                             0x0801b151   Thumb Code   320  pid.o(.text.PID_Position)
    PWM_Register                             0x0801b291   Thumb Code   176  bsp_pwm.o(.text.PWM_Register)
    PWM_Set_DutyRatio                        0x0801b409   Thumb Code   350  bsp_pwm.o(.text.PWM_Set_DutyRatio)
    PWM_Set_Period                           0x0801b569   Thumb Code    94  bsp_pwm.o(.text.PWM_Set_Period)
    PendSV_Handler                           0x0801b5d1   Thumb Code   100  port.o(.text.PendSV_Handler)
    Procotol_Task_Init                       0x0801b671   Thumb Code   136  procotol_task.o(.text.Procotol_Task_Init)
    Publisher_Register                       0x0801b6f9   Thumb Code   150  message_center.o(.text.Publisher_Register)
    RC_Receive_Control                       0x0801bb31   Thumb Code     2  procotol.o(.text.RC_Receive_Control)
    RNG_IRQHandler                           0x0801bb39   Thumb Code    16  stm32h7xx_it.o(.text.RNG_IRQHandler)
    Robot_Frame_Init                         0x0801bb49   Thumb Code    16  robot_frame_init.o(.text.Robot_Frame_Init)
    SPI2_IRQHandler                          0x0801bb59   Thumb Code    16  stm32h7xx_it.o(.text.SPI2_IRQHandler)
    SPI_Register                             0x0801bde1   Thumb Code   134  bsp_spi.o(.text.SPI_Register)
    SPI_Set_Mode                             0x0801bf39   Thumb Code    68  bsp_spi.o(.text.SPI_Set_Mode)
    SPI_Transmit                             0x0801bf81   Thumb Code   124  bsp_spi.o(.text.SPI_Transmit)
    SPI_Transmit_Receive                     0x0801c001   Thumb Code   172  bsp_spi.o(.text.SPI_Transmit_Receive)
    SVC_Handler                              0x0801c1e1   Thumb Code    36  port.o(.text.SVC_Handler)
    Shoot_Console                            0x0801c219   Thumb Code     2  shoot_task.o(.text.Shoot_Console)
    Shoot_Handle_Exception                   0x0801c221   Thumb Code     2  shoot_task.o(.text.Shoot_Handle_Exception)
    Shoot_Observer                           0x0801c229   Thumb Code     2  shoot_task.o(.text.Shoot_Observer)
    Shoot_Publish                            0x0801c231   Thumb Code     2  shoot_task.o(.text.Shoot_Publish)
    Shoot_Reference                          0x0801c239   Thumb Code     2  shoot_task.o(.text.Shoot_Reference)
    Shoot_Send_Cmd                           0x0801c241   Thumb Code     2  shoot_task.o(.text.Shoot_Send_Cmd)
    Shoot_Set_Mode                           0x0801c249   Thumb Code     2  shoot_task.o(.text.Shoot_Set_Mode)
    Shoot_Task_Init                          0x0801c2b9   Thumb Code   136  shoot_task.o(.text.Shoot_Task_Init)
    Sqrt                                     0x0801c669   Thumb Code   184  user_lib.o(.text.Sqrt)
    StartDefaultTask                         0x0801c729   Thumb Code   472  freertos.o(.text.StartDefaultTask)
    Subscriber_Register                      0x0801c901   Thumb Code   146  message_center.o(.text.Subscriber_Register)
    Supervisor_Register                      0x0801c999   Thumb Code    94  defense_center.o(.text.Supervisor_Register)
    Supervisor_Reload                        0x0801c9f9   Thumb Code    14  defense_center.o(.text.Supervisor_Reload)
    SysTick_Handler                          0x0801ca09   Thumb Code    30  cmsis_os2.o(.text.SysTick_Handler)
    SystemClock_Config                       0x0801ca29   Thumb Code   208  main.o(.text.SystemClock_Config)
    SystemInit                               0x0801caf9   Thumb Code   358  system_stm32h7xx.o(.text.SystemInit)
    TIM7_IRQHandler                          0x0801cc61   Thumb Code    16  stm32h7xx_it.o(.text.TIM7_IRQHandler)
    TIM_Base_SetConfig                       0x0801cc71   Thumb Code   452  stm32h7xx_hal_tim.o(.text.TIM_Base_SetConfig)
    TIM_CCxChannelCmd                        0x0801ce39   Thumb Code    54  stm32h7xx_hal_tim.o(.text.TIM_CCxChannelCmd)
    TIM_OC2_SetConfig                        0x0801cfc1   Thumb Code   364  stm32h7xx_hal_tim.o(.text.TIM_OC2_SetConfig)
    UART5_IRQHandler                         0x0801d529   Thumb Code    16  stm32h7xx_it.o(.text.UART5_IRQHandler)
    UART7_IRQHandler                         0x0801d539   Thumb Code    16  stm32h7xx_it.o(.text.UART7_IRQHandler)
    UART_AdvFeatureConfig                    0x0801d5d1   Thumb Code   328  stm32h7xx_hal_uart.o(.text.UART_AdvFeatureConfig)
    UART_CheckIdleState                      0x0801d719   Thumb Code   326  stm32h7xx_hal_uart.o(.text.UART_CheckIdleState)
    UART_SetConfig                           0x0801dc11   Thumb Code  2638  stm32h7xx_hal_uart.o(.text.UART_SetConfig)
    UART_Start_Receive_DMA                   0x0801e661   Thumb Code   302  stm32h7xx_hal_uart.o(.text.UART_Start_Receive_DMA)
    UART_WaitOnFlagUntilTimeout              0x0801ea51   Thumb Code   268  stm32h7xx_hal_uart.o(.text.UART_WaitOnFlagUntilTimeout)
    USART10_IRQHandler                       0x0801eb61   Thumb Code    16  stm32h7xx_it.o(.text.USART10_IRQHandler)
    USART1_IRQHandler                        0x0801eb71   Thumb Code    16  stm32h7xx_it.o(.text.USART1_IRQHandler)
    USART2_IRQHandler                        0x0801eb81   Thumb Code    16  stm32h7xx_it.o(.text.USART2_IRQHandler)
    USART3_IRQHandler                        0x0801eb91   Thumb Code    16  stm32h7xx_it.o(.text.USART3_IRQHandler)
    USART_Register                           0x0801eba1   Thumb Code   206  bsp_usart.o(.text.USART_Register)
    USART_Send                               0x0801ec71   Thumb Code   110  bsp_usart.o(.text.USART_Send)
    USART_Service_Init                       0x0801ece1   Thumb Code   482  bsp_usart.o(.text.USART_Service_Init)
    UsageFault_Handler                       0x0801eec9   Thumb Code     4  stm32h7xx_it.o(.text.UsageFault_Handler)
    VMC_Calc_Base_Data                       0x0801eed1   Thumb Code  1672  vmc.o(.text.VMC_Calc_Base_Data)
    VMC_Calc_T_Joint                         0x0801f571   Thumb Code   550  vmc.o(.text.VMC_Calc_T_Joint)
    VMC_FN_Ground_Detection                  0x0801f799   Thumb Code   184  vmc.o(.text.VMC_FN_Ground_Detection)
    VMC_Init                                 0x0801f851   Thumb Code    80  vmc.o(.text.VMC_Init)
    VOFA_Display_IMU                         0x0801f8a1   Thumb Code   190  procotol.o(.text.VOFA_Display_IMU)
    VOFA_Register                            0x0801f961   Thumb Code    44  vofa.o(.text.VOFA_Register)
    VOFA_Send_Data                           0x0801f991   Thumb Code    80  vofa.o(.text.VOFA_Send_Data)
    VOFA_Transmit                            0x0801f9e1   Thumb Code    42  vofa.o(.text.VOFA_Transmit)
    WFLY_SBUS_Register                       0x0801fa61   Thumb Code    68  wfly_control.o(.text.WFLY_SBUS_Register)
    WS2812_Control                           0x0801fac1   Thumb Code   132  ws2812.o(.text.WS2812_Control)
    WS2812_Register                          0x0801fb49   Thumb Code    74  ws2812.o(.text.WS2812_Register)
    arm_cos_f32                              0x0801fd0d   Thumb Code   144  arm_cos_f32.o(.text.arm_cos_f32)
    arm_mat_add_f32                          0x0801fd9d   Thumb Code   190  arm_mat_add_f32.o(.text.arm_mat_add_f32)
    arm_mat_init_f32                         0x0801fe5b   Thumb Code     8  arm_mat_init_f32.o(.text.arm_mat_init_f32)
    arm_mat_inverse_f32                      0x0801fe65   Thumb Code   716  arm_mat_inverse_f32.o(.text.arm_mat_inverse_f32)
    arm_mat_mult_f32                         0x08020131   Thumb Code   304  arm_mat_mult_f32.o(.text.arm_mat_mult_f32)
    arm_mat_sub_f32                          0x08020261   Thumb Code   190  arm_mat_sub_f32.o(.text.arm_mat_sub_f32)
    arm_mat_trans_f32                        0x08020321   Thumb Code   180  arm_mat_trans_f32.o(.text.arm_mat_trans_f32)
    arm_sin_f32                              0x080203d5   Thumb Code   140  arm_sin_f32.o(.text.arm_sin_f32)
    float_constrain                          0x08020461   Thumb Code    80  user_lib.o(.text.float_constrain)
    float_deadband                           0x080204b1   Thumb Code    68  user_lib.o(.text.float_deadband)
    float_to_uint                            0x080204f9   Thumb Code    88  dm_motor.o(.text.float_to_uint)
    main                                     0x080205a9   Thumb Code   112  main.o(.text.main)
    osDelay                                  0x08020709   Thumb Code    52  cmsis_os2.o(.text.osDelay)
    osDelayUntil                             0x08020741   Thumb Code    88  cmsis_os2.o(.text.osDelayUntil)
    osKernelGetTickCount                     0x08020799   Thumb Code    38  cmsis_os2.o(.text.osKernelGetTickCount)
    osKernelInitialize                       0x080207c1   Thumb Code    70  cmsis_os2.o(.text.osKernelInitialize)
    osKernelStart                            0x08020809   Thumb Code    82  cmsis_os2.o(.text.osKernelStart)
    osThreadFlagsSet                         0x08020861   Thumb Code   164  cmsis_os2.o(.text.osThreadFlagsSet)
    osThreadNew                              0x08020909   Thumb Code   346  cmsis_os2.o(.text.osThreadNew)
    osThreadResume                           0x08020a69   Thumb Code    64  cmsis_os2.o(.text.osThreadResume)
    osThreadSuspend                          0x08020aa9   Thumb Code    64  cmsis_os2.o(.text.osThreadSuspend)
    pvPortMalloc                             0x08021a61   Thumb Code   492  heap_4.o(.text.pvPortMalloc)
    pxPortInitialiseStack                    0x08021c51   Thumb Code    94  port.o(.text.pxPortInitialiseStack)
    ramp_calc                                0x08021cb1   Thumb Code  1318  user_lib.o(.text.ramp_calc)
    ramp_init                                0x080221d9   Thumb Code    90  user_lib.o(.text.ramp_init)
    trans_thresholds                         0x080223f1   Thumb Code   166  user_lib.o(.text.trans_thresholds)
    uint_to_float                            0x08022499   Thumb Code    82  dm_motor.o(.text.uint_to_float)
    uxListRemove                             0x080224f1   Thumb Code    72  list.o(.text.uxListRemove)
    uxTaskGetStackHighWaterMark              0x08022539   Thumb Code    56  tasks.o(.text.uxTaskGetStackHighWaterMark)
    vApplicationGetIdleTaskMemory            0x08022571   Thumb Code    42  cmsis_os2.o(.text.vApplicationGetIdleTaskMemory)
    vApplicationGetTimerTaskMemory           0x080225a1   Thumb Code    44  cmsis_os2.o(.text.vApplicationGetTimerTaskMemory)
    vListInitialise                          0x080225d1   Thumb Code    46  list.o(.text.vListInitialise)
    vListInitialiseItem                      0x08022601   Thumb Code    14  list.o(.text.vListInitialiseItem)
    vListInsert                              0x08022611   Thumb Code   106  list.o(.text.vListInsert)
    vListInsertEnd                           0x08022681   Thumb Code    58  list.o(.text.vListInsertEnd)
    vPortEnterCritical                       0x080226d9   Thumb Code    86  port.o(.text.vPortEnterCritical)
    vPortExitCritical                        0x08022731   Thumb Code    74  port.o(.text.vPortExitCritical)
    vPortFree                                0x08022781   Thumb Code   206  heap_4.o(.text.vPortFree)
    vPortSetupTimerInterrupt                 0x08022851   Thumb Code    68  port.o(.text.vPortSetupTimerInterrupt)
    vPortValidateInterruptPriority           0x08022899   Thumb Code   132  port.o(.text.vPortValidateInterruptPriority)
    vQueueAddToRegistry                      0x08022921   Thumb Code    82  queue.o(.text.vQueueAddToRegistry)
    vQueueWaitForMessageRestricted           0x08022979   Thumb Code   100  queue.o(.text.vQueueWaitForMessageRestricted)
    vTaskDelay                               0x080229e1   Thumb Code   110  tasks.o(.text.vTaskDelay)
    vTaskDelayUntil                          0x08022a51   Thumb Code   276  tasks.o(.text.vTaskDelayUntil)
    vTaskInternalSetTimeOutState             0x08022b69   Thumb Code    36  tasks.o(.text.vTaskInternalSetTimeOutState)
    vTaskMissedYield                         0x08022b91   Thumb Code    14  tasks.o(.text.vTaskMissedYield)
    vTaskPlaceOnEventList                    0x08022ba1   Thumb Code    66  tasks.o(.text.vTaskPlaceOnEventList)
    vTaskPlaceOnEventListRestricted          0x08022be9   Thumb Code    82  tasks.o(.text.vTaskPlaceOnEventListRestricted)
    vTaskResume                              0x08022c41   Thumb Code   214  tasks.o(.text.vTaskResume)
    vTaskStartScheduler                      0x08022d19   Thumb Code   224  tasks.o(.text.vTaskStartScheduler)
    vTaskSuspend                             0x08022df9   Thumb Code   296  tasks.o(.text.vTaskSuspend)
    vTaskSuspendAll                          0x08022f21   Thumb Code    16  tasks.o(.text.vTaskSuspendAll)
    vTaskSwitchContext                       0x08022f31   Thumb Code   198  tasks.o(.text.vTaskSwitchContext)
    wfly_to_rc                               0x08022ff9   Thumb Code   840  wfly_control.o(.text.wfly_to_rc)
    xPortStartScheduler                      0x08023341   Thumb Code   342  port.o(.text.xPortStartScheduler)
    xPortSysTickHandler                      0x08023499   Thumb Code    60  port.o(.text.xPortSysTickHandler)
    xQueueGenericCreateStatic                0x080234d9   Thumb Code   270  queue.o(.text.xQueueGenericCreateStatic)
    xQueueGenericReset                       0x080235e9   Thumb Code   186  queue.o(.text.xQueueGenericReset)
    xQueueGenericSend                        0x080236a9   Thumb Code   556  queue.o(.text.xQueueGenericSend)
    xQueueGenericSendFromISR                 0x080238d9   Thumb Code   332  queue.o(.text.xQueueGenericSendFromISR)
    xQueueReceive                            0x08023a29   Thumb Code   476  queue.o(.text.xQueueReceive)
    xTaskCheckForTimeOut                     0x08023c09   Thumb Code   204  tasks.o(.text.xTaskCheckForTimeOut)
    xTaskCreate                              0x08023cd9   Thumb Code   158  tasks.o(.text.xTaskCreate)
    xTaskCreateStatic                        0x08023d79   Thumb Code   206  tasks.o(.text.xTaskCreateStatic)
    xTaskGenericNotify                       0x08023e49   Thumb Code   376  tasks.o(.text.xTaskGenericNotify)
    xTaskGenericNotifyFromISR                0x08023fc1   Thumb Code   452  tasks.o(.text.xTaskGenericNotifyFromISR)
    xTaskGetSchedulerState                   0x08024189   Thumb Code    56  tasks.o(.text.xTaskGetSchedulerState)
    xTaskGetTickCount                        0x080241c1   Thumb Code    20  tasks.o(.text.xTaskGetTickCount)
    xTaskGetTickCountFromISR                 0x080241d9   Thumb Code    30  tasks.o(.text.xTaskGetTickCountFromISR)
    xTaskIncrementTick                       0x080241f9   Thumb Code   452  tasks.o(.text.xTaskIncrementTick)
    xTaskPriorityDisinherit                  0x080243c1   Thumb Code   236  tasks.o(.text.xTaskPriorityDisinherit)
    xTaskRemoveFromEventList                 0x080244b1   Thumb Code   206  tasks.o(.text.xTaskRemoveFromEventList)
    xTaskResumeAll                           0x08024581   Thumb Code   390  tasks.o(.text.xTaskResumeAll)
    xTimerCreateTimerTask                    0x08024709   Thumb Code   148  timers.o(.text.xTimerCreateTimerTask)
    xTimerGenericCommand                     0x080247a1   Thumb Code   176  timers.o(.text.xTimerGenericCommand)
    __ARM_fpclassify                         0x0802498d   Thumb Code    48  fpclassify.o(i.__ARM_fpclassify)
    __ARM_fpclassifyf                        0x080249bd   Thumb Code    38  fpclassifyf.o(i.__ARM_fpclassifyf)
    __hardfp_acosf                           0x080249e5   Thumb Code   234  acosf.o(i.__hardfp_acosf)
    __hardfp_asinf                           0x08024afd   Thumb Code   258  asinf.o(i.__hardfp_asinf)
    __hardfp_atan                            0x08024c29   Thumb Code   402  atan.o(i.__hardfp_atan)
    __hardfp_atan2                           0x08024e01   Thumb Code   392  atan2.o(i.__hardfp_atan2)
    __hardfp_atan2f                          0x08024fc9   Thumb Code   594  atan2f.o(i.__hardfp_atan2f)
    __hardfp_cosf                            0x08025275   Thumb Code   280  cosf.o(i.__hardfp_cosf)
    __hardfp_sinf                            0x080253c5   Thumb Code   344  sinf.o(i.__hardfp_sinf)
    __hardfp_sqrt                            0x08025555   Thumb Code   102  sqrt.o(i.__hardfp_sqrt)
    __hardfp_sqrtf                           0x080255bb   Thumb Code    58  sqrtf.o(i.__hardfp_sqrtf)
    __kernel_poly                            0x080255f5   Thumb Code   112  poly.o(i.__kernel_poly)
    __mathlib_dbl_infnan                     0x08025665   Thumb Code     6  dunder.o(i.__mathlib_dbl_infnan)
    __mathlib_dbl_infnan2                    0x0802566b   Thumb Code     6  dunder.o(i.__mathlib_dbl_infnan2)
    __mathlib_dbl_underflow                  0x08025671   Thumb Code    10  dunder.o(i.__mathlib_dbl_underflow)
    __mathlib_flt_infnan                     0x08025689   Thumb Code     6  funder.o(i.__mathlib_flt_infnan)
    __mathlib_flt_infnan2                    0x0802568f   Thumb Code     6  funder.o(i.__mathlib_flt_infnan2)
    __mathlib_flt_invalid                    0x08025695   Thumb Code    10  funder.o(i.__mathlib_flt_invalid)
    __mathlib_flt_underflow                  0x080256a5   Thumb Code    10  funder.o(i.__mathlib_flt_underflow)
    __mathlib_rredf2                         0x080256b5   Thumb Code   316  rredf.o(i.__mathlib_rredf2)
    atan                                     0x08025809   Thumb Code    16  atan.o(i.atan)
    fabs                                     0x08025819   Thumb Code    24  fabs.o(i.fabs)
    sqrtf                                    0x08025831   Thumb Code    62  sqrtf.o(i.sqrtf)
    _get_lc_ctype                            0x08025871   Thumb Code    44  lc_ctype_c.o(locale$$code)
    _fp_init                                 0x0802589d   Thumb Code    26  fpinit.o(x$fpl$fpinit)
    __fplib_config_fpu_vfp                   0x080258b5   Thumb Code     0  fpinit.o(x$fpl$fpinit)
    __fplib_config_pureend_doubles           0x080258b5   Thumb Code     0  fpinit.o(x$fpl$fpinit)
    __I$use$fp                               0x080258b6   Number         0  usenofp.o(x$fpl$usenofp)
    __mathlib_zero                           0x08025950   Data           8  qnan.o(.constdata)
    Call_Airsupport_sound                    0x08025ab4   Data          31  buzzer.o(.rodata.Call_Airsupport_sound)
    D1CorePrescTable                         0x08025ad3   Data          16  system_stm32h7xx.o(.rodata.D1CorePrescTable)
    Err_sound                                0x08025afb   Data          31  buzzer.o(.rodata.Err_sound)
    Heartbeat_sound                          0x08025b1a   Data          60  buzzer.o(.rodata.Heartbeat_sound)
    IMU_QuaternionEKF_F                      0x08025b58   Data         144  quaternionekf.o(.rodata.IMU_QuaternionEKF_F)
    Init_sound                               0x08025be8   Data          13  buzzer.o(.rodata.Init_sound)
    No_RC_sound                              0x08025bf5   Data          18  buzzer.o(.rodata.No_RC_sound)
    Note_Freq                                0x08025c08   Data         218  buzzer.o(.rodata.Note_Freq)
    Ready_sound                              0x08025ce2   Data          22  buzzer.o(.rodata.Ready_sound)
    StartUP_sound                            0x08025cf8   Data          17  buzzer.o(.rodata.StartUP_sound)
    Super_Mario_sound                        0x08025d09   Data         125  buzzer.o(.rodata.Super_Mario_sound)
    UARTPrescTable                           0x08025d96   Data          24  stm32h7xx_hal_uart.o(.rodata.UARTPrescTable)
    Warming_sound                            0x08025dae   Data          36  buzzer.o(.rodata.Warming_sound)
    Yes_RC_sound                             0x08025dd2   Data          43  buzzer.o(.rodata.Yes_RC_sound)
    defaultTask_attributes                   0x08025e04   Data          36  freertos.o(.rodata.defaultTask_attributes)
    gravity                                  0x08025e28   Data          12  ins.o(.rodata.gravity)
    sinTable_f32                             0x08025e34   Data        2052  arm_common_tables.o(.rodata.sinTable_f32)
    xb                                       0x08026798   Data          12  ins.o(.rodata.xb)
    yb                                       0x080267a4   Data          12  ins.o(.rodata.yb)
    zb                                       0x080267b0   Data          12  ins.o(.rodata.zb)
    Region$$Table$$Base                      0x080267bc   Number         0  anon$$obj.o(Region$$Table)
    Region$$Table$$Limit                     0x080267dc   Number         0  anon$$obj.o(Region$$Table)
    __ctype                                  0x080267e9   Data           0  lc_ctype_c.o(locale$$data)
    DJI_left_motor_init                      0x24000014   Data          80  balance_chassis.o(.data.DJI_left_motor_init)
    DJI_right_motor_init                     0x24000064   Data          80  balance_chassis.o(.data.DJI_right_motor_init)
    DM_left_back_motor_init                  0x240000b4   Data          80  balance_chassis.o(.data.DM_left_back_motor_init)
    DM_left_front_motor_init                 0x24000104   Data          80  balance_chassis.o(.data.DM_left_front_motor_init)
    DM_right_back_motor_init                 0x24000154   Data          80  balance_chassis.o(.data.DM_right_back_motor_init)
    DM_right_front_motor_init                0x240001a4   Data          80  balance_chassis.o(.data.DM_right_front_motor_init)
    IMU_QuaternionEKF_P                      0x240001f4   Data         144  quaternionekf.o(.data.IMU_QuaternionEKF_P)
    Poly_Coefficient_Leg                     0x24000284   Data         192  balance_chassis.o(.data.Poly_Coefficient_Leg)
    Poly_Coefficient_STOOL                   0x24000344   Data         192  balance_chassis.o(.data.Poly_Coefficient_STOOL)
    R_1                                      0x24000404   Data           4  balance_chassis.o(.data.R_1)
    SystemCoreClock                          0x24000408   Data           4  system_stm32h7xx.o(.data.SystemCoreClock)
    SystemD2Clock                            0x2400040c   Data           4  system_stm32h7xx.o(.data.SystemD2Clock)
    bmi088_init_h7                           0x24000438   Data         192  bmi088.o(.data.bmi088_init_h7)
    down_torque_jump                         0x240004fc   Data           4  balance_chassis.o(.data.down_torque_jump)
    jump_ramp_init                           0x24000500   Data          21  balance_chassis.o(.data.jump_ramp_init)
    left_leg_v_target_ramp_init              0x24000515   Data          21  balance_chassis.o(.data.left_leg_v_target_ramp_init)
    left_wheel_torque_ramp_init              0x2400052a   Data          21  balance_chassis.o(.data.left_wheel_torque_ramp_init)
    leg_length_ramp_init                     0x2400053f   Data          21  balance_chassis.o(.data.leg_length_ramp_init)
    off_threshold                            0x24000584   Data           1  vmc.o(.data.off_threshold)
    off_time_jump                            0x24000585   Data           1  balance_chassis.o(.data.off_time_jump)
    off_time_normal                          0x24000586   Data           1  balance_chassis.o(.data.off_time_normal)
    right_leg_v_target_ramp_init             0x24000587   Data          21  balance_chassis.o(.data.right_leg_v_target_ramp_init)
    right_wheel_torque_ramp_init             0x2400059c   Data          21  balance_chassis.o(.data.right_wheel_torque_ramp_init)
    roll_f0_ramp_init                        0x240005b1   Data          21  balance_chassis.o(.data.roll_f0_ramp_init)
    touch_threshold                          0x24000a78   Data           1  vmc.o(.data.touch_threshold)
    touch_time_jump                          0x24000a79   Data           1  balance_chassis.o(.data.touch_time_jump)
    touch_time_normal                        0x24000a7a   Data           1  balance_chassis.o(.data.touch_time_normal)
    turn_ramp_init                           0x24000a7b   Data          21  balance_chassis.o(.data.turn_ramp_init)
    up_torque_jump                           0x24000a90   Data           4  balance_chassis.o(.data.up_torque_jump)
    uwTickFreq                               0x24000a94   Data           1  stm32h7xx_hal.o(.data.uwTickFreq)
    uwTickPrio                               0x24000a98   Data           4  stm32h7xx_hal.o(.data.uwTickPrio)
    __libspace_start                         0x24000ae0   Data          96  libspace.o(.bss)
    __temporary_stack_top$libspace           0x24000b40   Data           0  libspace.o(.bss)
    Buzzer_Handle                            0x24000b88   Data           4  daemon_task.o(.bss.Buzzer_Handle)
    CYCCNT64                                 0x24000c10   Data           8  bsp_dwt.o(.bss.CYCCNT64)
    DJI_left_motor_instance                  0x24000c74   Data           4  balance_chassis.o(.bss.DJI_left_motor_instance)
    DJI_right_motor_instance                 0x24000c78   Data           4  balance_chassis.o(.bss.DJI_right_motor_instance)
    DM_left_back_motor_instance              0x24000c7c   Data           4  balance_chassis.o(.bss.DM_left_back_motor_instance)
    DM_left_front_motor_instance             0x24000c80   Data           4  balance_chassis.o(.bss.DM_left_front_motor_instance)
    DM_right_back_motor_instance             0x24000c84   Data           4  balance_chassis.o(.bss.DM_right_back_motor_instance)
    DM_right_front_motor_instance            0x24000c88   Data           4  balance_chassis.o(.bss.DM_right_front_motor_instance)
    IMU_QuaternionEKF_H                      0x24000cc8   Data          72  quaternionekf.o(.bss.IMU_QuaternionEKF_H)
    IMU_QuaternionEKF_K                      0x24000d10   Data          72  quaternionekf.o(.bss.IMU_QuaternionEKF_K)
    INS                                      0x24000d88   Data         145  ins.o(.bss.INS)
    INS_task_diff                            0x24000e28   Data           4  ins_task.o(.bss.INS_task_diff)
    INS_task_handel                          0x24000e2c   Data           4  ins_task.o(.bss.INS_task_handel)
    QEKF_INS                                 0x24000e98   Data         488  quaternionekf.o(.bss.QEKF_INS)
    acc_kf                                   0x240010ec   Data          84  bmi088.o(.bss.acc_kf)
    accel_ins                                0x24001140   Data          12  ins.o(.bss.accel_ins)
    balance_chassis                          0x2400114c   Data         176  balance_chassis.o(.bss.balance_chassis)
    beat                                     0x240011fc   Data           4  freertos.o(.bss.beat)
    bmi088_h7                                0x24001200   Data           4  bmi088.o(.bss.bmi088_h7)
    chassis_err_left_test                    0x24001270   Data          24  balance_chassis.o(.bss.chassis_err_left_test)
    chassis_err_right_test                   0x24001288   Data          24  balance_chassis.o(.bss.chassis_err_right_test)
    chassis_high_water                       0x240012a0   Data           4  chassis_task.o(.bss.chassis_high_water)
    chassis_left_leg                         0x240012a4   Data         340  balance_chassis.o(.bss.chassis_left_leg)
    chassis_right_leg                        0x240013fc   Data         340  balance_chassis.o(.bss.chassis_right_leg)
    chassis_task_diff                        0x24001554   Data           4  chassis_task.o(.bss.chassis_task_diff)
    cnt                                      0x24001558   Data           2  vofa.o(.bss.cnt)
    dd_w_kf                                  0x2400155c   Data          56  balance_chassis.o(.bss.dd_w_kf)
    defaultTaskHandle                        0x24001594   Data           4  freertos.o(.bss.defaultTaskHandle)
    gimbal_high_water                        0x240015d8   Data           4  gimbal_task.o(.bss.gimbal_high_water)
    gimbal_task_diff                         0x240015e4   Data           4  gimbal_task.o(.bss.gimbal_task_diff)
    gimbal_task_handel                       0x240015e8   Data           4  gimbal_task.o(.bss.gimbal_task_handel)
    gyro_ins                                 0x2400160c   Data          12  ins.o(.bss.gyro_ins)
    gyro_kf                                  0x24001618   Data          84  bmi088.o(.bss.gyro_kf)
    hdma_spi2_rx                             0x2400166c   Data         120  spi.o(.bss.hdma_spi2_rx)
    hdma_spi2_tx                             0x240016e4   Data         120  spi.o(.bss.hdma_spi2_tx)
    hdma_uart5_rx                            0x2400175c   Data         120  usart.o(.bss.hdma_uart5_rx)
    hdma_uart7_rx                            0x240017d4   Data         120  usart.o(.bss.hdma_uart7_rx)
    hdma_uart7_tx                            0x2400184c   Data         120  usart.o(.bss.hdma_uart7_tx)
    hfdcan1                                  0x240018c4   Data         160  fdcan.o(.bss.hfdcan1)
    hfdcan2                                  0x24001964   Data         160  fdcan.o(.bss.hfdcan2)
    hfdcan3                                  0x24001a04   Data         160  fdcan.o(.bss.hfdcan3)
    hi2c2                                    0x24001aa4   Data          84  i2c.o(.bss.hi2c2)
    hrng                                     0x24001af8   Data          20  rng.o(.bss.hrng)
    hspi2                                    0x24001b0c   Data         136  spi.o(.bss.hspi2)
    hspi6                                    0x24001b94   Data         136  spi.o(.bss.hspi6)
    htim1                                    0x24001c1c   Data          76  tim.o(.bss.htim1)
    htim12                                   0x24001c68   Data          76  tim.o(.bss.htim12)
    htim2                                    0x24001cb4   Data          76  tim.o(.bss.htim2)
    htim3                                    0x24001d00   Data          76  tim.o(.bss.htim3)
    htim7                                    0x24001d4c   Data          76  stm32h7xx_hal_timebase_tim.o(.bss.htim7)
    huart1                                   0x24001d98   Data         148  usart.o(.bss.huart1)
    huart10                                  0x24001e2c   Data         148  usart.o(.bss.huart10)
    huart2                                   0x24001ec0   Data         148  usart.o(.bss.huart2)
    huart3                                   0x24001f54   Data         148  usart.o(.bss.huart3)
    huart5                                   0x24001fe8   Data         148  usart.o(.bss.huart5)
    huart7                                   0x2400207c   Data         148  usart.o(.bss.huart7)
    imu_data                                 0x24002118   Data          28  ins.o(.bss.imu_data)
    ins_time                                 0x24002134   Data           4  ins.o(.bss.ins_time)
    jump_ramp                                0x24002138   Data           4  balance_chassis.o(.bss.jump_ramp)
    left_leg_F_N_nlms                        0x2400213c   Data         424  balance_chassis.o(.bss.left_leg_F_N_nlms)
    left_leg_v_target_ramp                   0x240022e4   Data           4  balance_chassis.o(.bss.left_leg_v_target_ramp)
    left_wheel_torque_ramp                   0x240022e8   Data           4  balance_chassis.o(.bss.left_wheel_torque_ramp)
    leg_FN                                   0x240022ec   Data          56  balance_chassis.o(.bss.leg_FN)
    leg_Tp_pid                               0x24002324   Data         136  balance_chassis.o(.bss.leg_Tp_pid)
    leg_l_length_position_pid                0x240023ac   Data         136  balance_chassis.o(.bss.leg_l_length_position_pid)
    leg_l_length_speed_pid                   0x24002434   Data         136  balance_chassis.o(.bss.leg_l_length_speed_pid)
    leg_length_pid                           0x240024bc   Data         136  balance_chassis.o(.bss.leg_length_pid)
    leg_length_ramp                          0x24002544   Data           4  balance_chassis.o(.bss.leg_length_ramp)
    leg_r_length_position_pid                0x24002548   Data         136  balance_chassis.o(.bss.leg_r_length_position_pid)
    leg_r_length_speed_pid                   0x240025d0   Data         136  balance_chassis.o(.bss.leg_r_length_speed_pid)
    leg_roll_position_pid                    0x24002658   Data         136  balance_chassis.o(.bss.leg_roll_position_pid)
    leg_turn_pid                             0x240026e0   Data         136  balance_chassis.o(.bss.leg_turn_pid)
    procotol_task_diff                       0x24002770   Data           4  procotol_task.o(.bss.procotol_task_diff)
    procotol_task_handel                     0x24002774   Data           4  procotol_task.o(.bss.procotol_task_handel)
    pxCurrentTCB                             0x240028ac   Data           4  tasks.o(.bss.pxCurrentTCB)
    rc_data                                  0x24002d24   Data           4  robot_frame_init.o(.bss.rc_data)
    right_leg_F_N_nlms                       0x24002d28   Data         424  balance_chassis.o(.bss.right_leg_F_N_nlms)
    right_leg_v_target_ramp                  0x24002ed0   Data           4  balance_chassis.o(.bss.right_leg_v_target_ramp)
    right_wheel_torque_ramp                  0x24002ed4   Data           4  balance_chassis.o(.bss.right_wheel_torque_ramp)
    robot_cmd_task_handel                    0x24002ed8   Data           4  chassis_task.o(.bss.robot_cmd_task_handel)
    roll_f0_ramp                             0x24002edc   Data           4  balance_chassis.o(.bss.roll_f0_ramp)
    send_buf                                 0x24002ee0   Data         128  vofa.o(.bss.send_buf)
    shoot_high_water                         0x24002f70   Data           4  shoot_task.o(.bss.shoot_high_water)
    shoot_task_diff                          0x24002f7c   Data           4  shoot_task.o(.bss.shoot_task_diff)
    shoot_task_handel                        0x24002f80   Data           4  shoot_task.o(.bss.shoot_task_handel)
    sizeof_double                            0x24002f84   Data           2  kalman_filter.o(.bss.sizeof_double)
    sizeof_float                             0x24002f86   Data           2  kalman_filter.o(.bss.sizeof_float)
    stop_time                                0x24002f90   Data           4  ins.o(.bss.stop_time)
    system_time                              0x24003094   Data           8  bsp_dwt.o(.bss.system_time)
    turn_ramp                                0x2400309c   Data           4  balance_chassis.o(.bss.turn_ramp)
    uwTick                                   0x24006cc4   Data           4  stm32h7xx_hal.o(.bss.uwTick)
    vaEstimateKF                             0x24007394   Data         320  balance_chassis.o(.bss.vaEstimateKF)
    vofa_data_view                           0x240074d4   Data          80  vofa.o(.bss.vofa_data_view)
    vofa_usart_instance                      0x24007524   Data           4  vofa.o(.bss.vofa_usart_instance)
    watch_test                               0x24007528   Data           4  balance_chassis.o(.bss.watch_test)
    ws2812_config                            0x2400754c   Data          20  ws2812.o(.bss.ws2812_config)
    ws2812_instance                          0x24007560   Data           4  ws2812.o(.bss.ws2812_instance)
    xQueueRegistry                           0x240075ec   Data          64  queue.o(.bss.xQueueRegistry)



==============================================================================

Memory Map of the image

  Image Entry point : 0x080002cd

  Load Region LR_IROM1 (Base: 0x08000000, Size: 0x000273d0, Max: 0x00100000, ABSOLUTE, COMPRESSED[0x00026bf8])

    Execution Region ER_IROM1 (Exec base: 0x08000000, Load base: 0x08000000, Size: 0x000268ec, Max: 0x00100000, ABSOLUTE)

    Exec Addr    Load Addr    Size         Type   Attr      Idx    E Section Name        Object

    0x08000000   0x08000000   0x000002cc   Data   RO            3    RESET               startup_stm32h723xx.o
    0x080002cc   0x080002cc   0x00000008   Code   RO         4312  * !!!main             c_w.l(__main.o)
    0x080002d4   0x080002d4   0x0000005c   Code   RO         4828    !!!scatter          c_w.l(__scatter.o)
    0x08000330   0x08000330   0x0000005a   Code   RO         4826    !!dczerorl2         c_w.l(__dczerorl2.o)
    0x0800038a   0x0800038a   0x00000002   PAD
    0x0800038c   0x0800038c   0x00000002   Code   RO         4829    !!handler_null      c_w.l(__scatter.o)
    0x0800038e   0x0800038e   0x00000002   PAD
    0x08000390   0x08000390   0x0000001c   Code   RO         4832    !!handler_zi        c_w.l(__scatter_zi.o)
    0x080003ac   0x080003ac   0x00000002   Code   RO         4755    .ARM.Collect$$libinit$$00000000  c_w.l(libinit.o)
    0x080003ae   0x080003ae   0x00000004   Code   RO         4509    .ARM.Collect$$libinit$$00000001  c_w.l(libinit2.o)
    0x080003b2   0x080003b2   0x00000000   Code   RO         4512    .ARM.Collect$$libinit$$00000004  c_w.l(libinit2.o)
    0x080003b2   0x080003b2   0x00000000   Code   RO         4514    .ARM.Collect$$libinit$$00000006  c_w.l(libinit2.o)
    0x080003b2   0x080003b2   0x00000008   Code   RO         4515    .ARM.Collect$$libinit$$00000007  c_w.l(libinit2.o)
    0x080003ba   0x080003ba   0x00000000   Code   RO         4517    .ARM.Collect$$libinit$$0000000C  c_w.l(libinit2.o)
    0x080003ba   0x080003ba   0x00000000   Code   RO         4519    .ARM.Collect$$libinit$$0000000E  c_w.l(libinit2.o)
    0x080003ba   0x080003ba   0x00000000   Code   RO         4521    .ARM.Collect$$libinit$$00000010  c_w.l(libinit2.o)
    0x080003ba   0x080003ba   0x00000006   Code   RO         4522    .ARM.Collect$$libinit$$00000011  c_w.l(libinit2.o)
    0x080003c0   0x080003c0   0x00000000   Code   RO         4524    .ARM.Collect$$libinit$$00000013  c_w.l(libinit2.o)
    0x080003c0   0x080003c0   0x0000000c   Code   RO         4525    .ARM.Collect$$libinit$$00000014  c_w.l(libinit2.o)
    0x080003cc   0x080003cc   0x00000000   Code   RO         4526    .ARM.Collect$$libinit$$00000015  c_w.l(libinit2.o)
    0x080003cc   0x080003cc   0x00000000   Code   RO         4528    .ARM.Collect$$libinit$$00000017  c_w.l(libinit2.o)
    0x080003cc   0x080003cc   0x00000000   Code   RO         4530    .ARM.Collect$$libinit$$00000019  c_w.l(libinit2.o)
    0x080003cc   0x080003cc   0x00000000   Code   RO         4532    .ARM.Collect$$libinit$$0000001B  c_w.l(libinit2.o)
    0x080003cc   0x080003cc   0x00000000   Code   RO         4534    .ARM.Collect$$libinit$$0000001D  c_w.l(libinit2.o)
    0x080003cc   0x080003cc   0x00000000   Code   RO         4536    .ARM.Collect$$libinit$$0000001F  c_w.l(libinit2.o)
    0x080003cc   0x080003cc   0x00000000   Code   RO         4538    .ARM.Collect$$libinit$$00000021  c_w.l(libinit2.o)
    0x080003cc   0x080003cc   0x00000000   Code   RO         4540    .ARM.Collect$$libinit$$00000023  c_w.l(libinit2.o)
    0x080003cc   0x080003cc   0x00000000   Code   RO         4542    .ARM.Collect$$libinit$$00000025  c_w.l(libinit2.o)
    0x080003cc   0x080003cc   0x00000000   Code   RO         4544    .ARM.Collect$$libinit$$00000027  c_w.l(libinit2.o)
    0x080003cc   0x080003cc   0x00000000   Code   RO         4548    .ARM.Collect$$libinit$$0000002E  c_w.l(libinit2.o)
    0x080003cc   0x080003cc   0x00000000   Code   RO         4550    .ARM.Collect$$libinit$$00000030  c_w.l(libinit2.o)
    0x080003cc   0x080003cc   0x00000000   Code   RO         4552    .ARM.Collect$$libinit$$00000032  c_w.l(libinit2.o)
    0x080003cc   0x080003cc   0x00000000   Code   RO         4554    .ARM.Collect$$libinit$$00000034  c_w.l(libinit2.o)
    0x080003cc   0x080003cc   0x00000002   Code   RO         4555    .ARM.Collect$$libinit$$00000035  c_w.l(libinit2.o)
    0x080003ce   0x080003ce   0x00000002   Code   RO         4823    .ARM.Collect$$libshutdown$$00000000  c_w.l(libshutdown.o)
    0x080003d0   0x080003d0   0x00000000   Code   RO         4777    .ARM.Collect$$libshutdown$$00000002  c_w.l(libshutdown2.o)
    0x080003d0   0x080003d0   0x00000000   Code   RO         4779    .ARM.Collect$$libshutdown$$00000004  c_w.l(libshutdown2.o)
    0x080003d0   0x080003d0   0x00000000   Code   RO         4782    .ARM.Collect$$libshutdown$$00000007  c_w.l(libshutdown2.o)
    0x080003d0   0x080003d0   0x00000000   Code   RO         4785    .ARM.Collect$$libshutdown$$0000000A  c_w.l(libshutdown2.o)
    0x080003d0   0x080003d0   0x00000000   Code   RO         4787    .ARM.Collect$$libshutdown$$0000000C  c_w.l(libshutdown2.o)
    0x080003d0   0x080003d0   0x00000000   Code   RO         4790    .ARM.Collect$$libshutdown$$0000000F  c_w.l(libshutdown2.o)
    0x080003d0   0x080003d0   0x00000002   Code   RO         4791    .ARM.Collect$$libshutdown$$00000010  c_w.l(libshutdown2.o)
    0x080003d2   0x080003d2   0x00000000   Code   RO         4370    .ARM.Collect$$rtentry$$00000000  c_w.l(__rtentry.o)
    0x080003d2   0x080003d2   0x00000000   Code   RO         4631    .ARM.Collect$$rtentry$$00000002  c_w.l(__rtentry2.o)
    0x080003d2   0x080003d2   0x00000006   Code   RO         4643    .ARM.Collect$$rtentry$$00000004  c_w.l(__rtentry4.o)
    0x080003d8   0x080003d8   0x00000000   Code   RO         4633    .ARM.Collect$$rtentry$$00000009  c_w.l(__rtentry2.o)
    0x080003d8   0x080003d8   0x00000004   Code   RO         4634    .ARM.Collect$$rtentry$$0000000A  c_w.l(__rtentry2.o)
    0x080003dc   0x080003dc   0x00000000   Code   RO         4636    .ARM.Collect$$rtentry$$0000000C  c_w.l(__rtentry2.o)
    0x080003dc   0x080003dc   0x00000008   Code   RO         4637    .ARM.Collect$$rtentry$$0000000D  c_w.l(__rtentry2.o)
    0x080003e4   0x080003e4   0x00000002   Code   RO         4762    .ARM.Collect$$rtexit$$00000000  c_w.l(rtexit.o)
    0x080003e6   0x080003e6   0x00000000   Code   RO         4797    .ARM.Collect$$rtexit$$00000002  c_w.l(rtexit2.o)
    0x080003e6   0x080003e6   0x00000004   Code   RO         4798    .ARM.Collect$$rtexit$$00000003  c_w.l(rtexit2.o)
    0x080003ea   0x080003ea   0x00000006   Code   RO         4799    .ARM.Collect$$rtexit$$00000004  c_w.l(rtexit2.o)
    0x080003f0   0x080003f0   0x00000048   Code   RO            4    .text               startup_stm32h723xx.o
    0x08000438   0x08000438   0x00000010   Code   RO         4226    .text               c_w.l(rt_ctype_table.o)
    0x08000448   0x08000448   0x0000005e   Code   RO         4230    .text               c_w.l(h1_alloc.o)
    0x080004a6   0x080004a6   0x000000f0   Code   RO         4284    .text               c_w.l(lludivv7m.o)
    0x08000596   0x08000596   0x0000001e   Code   RO         4286    .text               c_w.l(toupper.o)
    0x080005b4   0x080005b4   0x00000018   Code   RO         4290    .text               c_w.l(strnlen.o)
    0x080005cc   0x080005cc   0x00000048   Code   RO         4292    .text               c_w.l(strcpy.o)
    0x08000614   0x08000614   0x0000008a   Code   RO         4294    .text               c_w.l(rt_memcpy_v6.o)
    0x0800069e   0x0800069e   0x00000064   Code   RO         4296    .text               c_w.l(rt_memcpy_w.o)
    0x08000702   0x08000702   0x0000007a   Code   RO         4298    .text               c_w.l(rt_memmove_w.o)
    0x0800077c   0x0800077c   0x00000010   Code   RO         4302    .text               c_w.l(aeabi_memset4.o)
    0x0800078c   0x0800078c   0x00000044   Code   RO         4304    .text               c_w.l(rt_memclr.o)
    0x080007d0   0x080007d0   0x0000004e   Code   RO         4306    .text               c_w.l(rt_memclr_w.o)
    0x0800081e   0x0800081e   0x00000002   PAD
    0x08000820   0x08000820   0x0000007c   Code   RO         4308    .text               c_w.l(strcmpv7m_pel.o)
    0x0800089c   0x0800089c   0x00000006   Code   RO         4310    .text               c_w.l(heapauxi.o)
    0x080008a2   0x080008a2   0x00000002   PAD
    0x080008a4   0x080008a4   0x00000008   Code   RO         4378    .text               c_w.l(rt_heap_descriptor_intlibspace.o)
    0x080008ac   0x080008ac   0x00000008   Code   RO         4383    .text               c_w.l(rt_locale_intlibspace.o)
    0x080008b4   0x080008b4   0x00000004   Code   RO         4385    .text               c_w.l(hguard.o)
    0x080008b8   0x080008b8   0x0000008a   Code   RO         4387    .text               c_w.l(init_alloc.o)
    0x08000942   0x08000942   0x0000000c   Code   RO         4393    .text               c_w.l(h1_init.o)
    0x0800094e   0x0800094e   0x0000004e   Code   RO         4395    .text               c_w.l(h1_free.o)
    0x0800099c   0x0800099c   0x00000016   Code   RO         4409    .text               c_w.l(_rserrno.o)
    0x080009b2   0x080009b2   0x00000014   Code   RO         4505    .text               c_w.l(memchr.o)
    0x080009c6   0x080009c6   0x00000002   PAD
    0x080009c8   0x080009c8   0x00000008   Code   RO         4627    .text               c_w.l(libspace.o)
    0x080009d0   0x080009d0   0x00000008   Code   RO         4650    .text               c_w.l(rt_errno_addr_intlibspace.o)
    0x080009d8   0x080009d8   0x00000000   Code   RO         4654    .text               c_w.l(maybetermalloc1.o)
    0x080009d8   0x080009d8   0x00000034   Code   RO         4656    .text               c_w.l(h1_extend.o)
    0x08000a0c   0x08000a0c   0x0000000e   Code   RO         4680    .text               c_w.l(defsig_rtmem_outer.o)
    0x08000a1a   0x08000a1a   0x00000002   Code   RO         4695    .text               c_w.l(use_no_semi.o)
    0x08000a1c   0x08000a1c   0x00000000   Code   RO         4697    .text               c_w.l(indicate_semi.o)
    0x08000a1c   0x08000a1c   0x0000004a   Code   RO         4698    .text               c_w.l(sys_stackheap_outer.o)
    0x08000a66   0x08000a66   0x00000012   Code   RO         4736    .text               c_w.l(exit.o)
    0x08000a78   0x08000a78   0x0000000a   Code   RO         4738    .text               c_w.l(defsig_exit.o)
    0x08000a82   0x08000a82   0x00000002   PAD
    0x08000a84   0x08000a84   0x00000050   Code   RO         4744    .text               c_w.l(defsig_rtmem_inner.o)
    0x08000ad4   0x08000ad4   0x0000000c   Code   RO         4758    .text               c_w.l(sys_exit.o)
    0x08000ae0   0x08000ae0   0x00000032   Code   RO         4772    .text               c_w.l(defsig_general.o)
    0x08000b12   0x08000b12   0x0000000e   Code   RO         4792    .text               c_w.l(sys_wrch.o)
    0x08000b20   0x08000b20   0x00000038   Code   RO         3112    .text.BMI088_Accel_INT_Callback  bmi088.o
    0x08000b58   0x08000b58   0x000001c0   Code   RO         3118    .text.BMI088_Accel_Init  bmi088.o
    0x08000d18   0x08000d18   0x0000005c   Code   RO         3098    .text.BMI088_Accel_Read  bmi088.o
    0x08000d74   0x08000d74   0x00000004   PAD
    0x08000d78   0x08000d78   0x00000154   Code   RO         3108    .text.BMI088_Accel_SPI_Finish_Callback  bmi088.o
    0x08000ecc   0x08000ecc   0x00000004   PAD
    0x08000ed0   0x08000ed0   0x0000002e   Code   RO         3124    .text.BMI088_Accel_Write_SingleReg  bmi088.o
    0x08000efe   0x08000efe   0x00000002   PAD
    0x08000f00   0x08000f00   0x000007b8   Code   RO         3104    .text.BMI088_Calibrate_IMU  bmi088.o
    0x080016b8   0x080016b8   0x00000008   Code   RO         3122    .text.BMI088_Filter_Init  bmi088.o
    0x080016c0   0x080016c0   0x00000038   Code   RO         3114    .text.BMI088_Gyro_INT_Callback  bmi088.o
    0x080016f8   0x080016f8   0x000001d4   Code   RO         3120    .text.BMI088_Gyro_Init  bmi088.o
    0x080018cc   0x080018cc   0x00000004   PAD
    0x080018d0   0x080018d0   0x0000005c   Code   RO         3100    .text.BMI088_Gyro_Read  bmi088.o
    0x0800192c   0x0800192c   0x00000004   PAD
    0x08001930   0x08001930   0x00000138   Code   RO         3110    .text.BMI088_Gyro_SPI_Finish_Callback  bmi088.o
    0x08001a68   0x08001a68   0x0000002e   Code   RO         3126    .text.BMI088_Gyro_Write_SingleReg  bmi088.o
    0x08001a96   0x08001a96   0x00000002   PAD
    0x08001a98   0x08001a98   0x00000074   Code   RO         3128    .text.BMI088_Kalman_Filter_Init  bmi088.o
    0x08001b0c   0x08001b0c   0x00000004   PAD
    0x08001b10   0x08001b10   0x000002f2   Code   RO         3096    .text.BMI088_Read_All  bmi088.o
    0x08001e02   0x08001e02   0x00000006   PAD
    0x08001e08   0x08001e08   0x000001dc   Code   RO         3106    .text.BMI088_Register  bmi088.o
    0x08001fe4   0x08001fe4   0x00000004   PAD
    0x08001fe8   0x08001fe8   0x0000005a   Code   RO         3116    .text.BMI088_Set_Mode  bmi088.o
    0x08002042   0x08002042   0x00000006   PAD
    0x08002048   0x08002048   0x00000154   Code   RO         3094    .text.BMI088_Temp_Control  bmi088.o
    0x0800219c   0x0800219c   0x00000004   PAD
    0x080021a0   0x080021a0   0x00000102   Code   RO         3845    .text.BodyFrameToEarthFrame  ins.o
    0x080022a2   0x080022a2   0x00000006   PAD
    0x080022a8   0x080022a8   0x00000004   Code   RO          190    .text.BusFault_Handler  stm32h7xx_it.o
    0x080022ac   0x080022ac   0x00000004   PAD
    0x080022b0   0x080022b0   0x000000b8   Code   RO         3049    .text.Buzzer_One_Note  buzzer.o
    0x08002368   0x08002368   0x0000008a   Code   RO         3051    .text.Buzzer_Play   buzzer.o
    0x080023f2   0x080023f2   0x00000006   PAD
    0x080023f8   0x080023f8   0x00000084   Code   RO         3043    .text.Buzzer_Register  buzzer.o
    0x0800247c   0x0800247c   0x00000004   PAD
    0x08002480   0x08002480   0x0000001c   Code   RO         3047    .text.Buzzer_Silence  buzzer.o
    0x0800249c   0x0800249c   0x00000004   PAD
    0x080024a0   0x080024a0   0x0000003e   Code   RO         3045    .text.Buzzer_Stop   buzzer.o
    0x080024de   0x080024de   0x00000002   PAD
    0x080024e0   0x080024e0   0x00000096   Code   RO         3053    .text.Buzzer_Task   buzzer.o
    0x08002576   0x08002576   0x00000002   PAD
    0x08002578   0x08002578   0x00000056   Code   RO         3818    .text.Buzzer_Task_Init  daemon_task.o
    0x080025ce   0x080025ce   0x00000002   PAD
    0x080025d0   0x080025d0   0x000000f6   Code   RO         2851    .text.CANFIFOxCallback  bsp_can.o
    0x080026c6   0x080026c6   0x00000002   PAD
    0x080026c8   0x080026c8   0x0000015a   Code   RO         2841    .text.CAN_Add_Filter  bsp_can.o
    0x08002822   0x08002822   0x00000006   PAD
    0x08002828   0x08002828   0x0000011a   Code   RO         2837    .text.CAN_Register  bsp_can.o
    0x08002942   0x08002942   0x00000006   PAD
    0x08002948   0x08002948   0x00000126   Code   RO         2839    .text.CAN_Service_Init  bsp_can.o
    0x08002a6e   0x08002a6e   0x00000002   PAD
    0x08002a70   0x08002a70   0x000000b8   Code   RO         2843    .text.CAN_Transmit  bsp_can.o
    0x08002b28   0x08002b28   0x00000094   Code   RO         3942    .text.Chassis_Calibrate_Control  balance_chassis.o
    0x08002bbc   0x08002bbc   0x00000004   PAD
    0x08002bc0   0x08002bc0   0x0000004c   Code   RO         3932    .text.Chassis_Console  balance_chassis.o
    0x08002c0c   0x08002c0c   0x00000004   PAD
    0x08002c10   0x08002c10   0x00000500   Code   RO         3952    .text.Chassis_Control_Leg  balance_chassis.o
    0x08003110   0x08003110   0x0000003e   Code   RO         3940    .text.Chassis_Debug_Control  balance_chassis.o
    0x0800314e   0x0800314e   0x00000002   PAD
    0x08003150   0x08003150   0x00000036   Code   RO         3934    .text.Chassis_Exception_Control  balance_chassis.o
    0x08003186   0x08003186   0x00000002   PAD
    0x08003188   0x08003188   0x00000264   Code   RO         3926    .text.Chassis_Handle_Exception  balance_chassis.o
    0x080033ec   0x080033ec   0x00000004   PAD
    0x080033f0   0x080033f0   0x00000488   Code   RO         3916    .text.Chassis_Init  balance_chassis.o
    0x08003878   0x08003878   0x000001a4   Code   RO         3922    .text.Chassis_Leg_Update  balance_chassis.o
    0x08003a1c   0x08003a1c   0x00000004   PAD
    0x08003a20   0x08003a20   0x00000b50   Code   RO         3938    .text.Chassis_Normal_Control  balance_chassis.o
    0x08004570   0x08004570   0x00000090   Code   RO         3920    .text.Chassis_Observer  balance_chassis.o
    0x08004600   0x08004600   0x00000002   Code   RO         3712    .text.Chassis_Publish  chassis_task.o
    0x08004602   0x08004602   0x00000006   PAD
    0x08004608   0x08004608   0x00000760   Code   RO         3930    .text.Chassis_Reference  balance_chassis.o
    0x08004d68   0x08004d68   0x00000d4c   Code   RO         3944    .text.Chassis_Send_Cmd  balance_chassis.o
    0x08005ab4   0x08005ab4   0x00000004   PAD
    0x08005ab8   0x08005ab8   0x000006f4   Code   RO         3928    .text.Chassis_Set_Mode  balance_chassis.o
    0x080061ac   0x080061ac   0x00000004   PAD
    0x080061b0   0x080061b0   0x000005f8   Code   RO         3924    .text.Chassis_Speed_Update  balance_chassis.o
    0x080067a8   0x080067a8   0x00000062   Code   RO         3710    .text.Chassis_Task  chassis_task.o
    0x0800680a   0x0800680a   0x00000006   PAD
    0x08006810   0x08006810   0x00000088   Code   RO         3708    .text.Chassis_Task_Init  chassis_task.o
    0x08006898   0x08006898   0x0000002c   Code   RO         3936    .text.Chassis_Zero_Control  balance_chassis.o
    0x080068c4   0x080068c4   0x00000004   PAD
    0x080068c8   0x080068c8   0x00000020   Code   RO         2985    .text.Check_Len     message_center.o
    0x080068e8   0x080068e8   0x0000001c   Code   RO         2983    .text.Check_Name    message_center.o
    0x08006904   0x08006904   0x00000004   PAD
    0x08006908   0x08006908   0x00000072   Code   RO         3337    .text.Cross3d       user_lib.o
    0x0800697a   0x0800697a   0x00000006   PAD
    0x08006980   0x08006980   0x000003a8   Code   RO         3191    .text.DJI_Motor_Control  dji_motor.o
    0x08006d28   0x08006d28   0x00000010   Code   RO         3175    .text.DJI_Motor_Disable  dji_motor.o
    0x08006d38   0x08006d38   0x00000010   Code   RO         3179    .text.DJI_Motor_Enable  dji_motor.o
    0x08006d48   0x08006d48   0x00000204   Code   RO         3189    .text.DJI_Motor_Error_Judge  dji_motor.o
    0x08006f4c   0x08006f4c   0x00000004   PAD
    0x08006f50   0x08006f50   0x00000134   Code   RO         3185    .text.DJI_Motor_GetVal  dji_motor.o
    0x08007084   0x08007084   0x00000004   PAD
    0x08007088   0x08007088   0x00000108   Code   RO         3167    .text.DJI_Motor_Init  dji_motor.o
    0x08007190   0x08007190   0x00000046   Code   RO         3173    .text.DJI_Motor_Lost_Callback  dji_motor.o
    0x080071d6   0x080071d6   0x00000002   PAD
    0x080071d8   0x080071d8   0x00000010   Code   RO          196    .text.DMA1_Stream0_IRQHandler  stm32h7xx_it.o
    0x080071e8   0x080071e8   0x00000010   Code   RO          198    .text.DMA1_Stream1_IRQHandler  stm32h7xx_it.o
    0x080071f8   0x080071f8   0x00000010   Code   RO          200    .text.DMA1_Stream2_IRQHandler  stm32h7xx_it.o
    0x08007208   0x08007208   0x00000010   Code   RO          202    .text.DMA1_Stream3_IRQHandler  stm32h7xx_it.o
    0x08007218   0x08007218   0x00000010   Code   RO          204    .text.DMA1_Stream4_IRQHandler  stm32h7xx_it.o
    0x08007228   0x08007228   0x000001ca   Code   RO          953    .text.DMA_CalcBaseAndBitshift  stm32h7xx_hal_dma.o
    0x080073f2   0x080073f2   0x00000006   PAD
    0x080073f8   0x080073f8   0x00000178   Code   RO          955    .text.DMA_CalcDMAMUXChannelBaseAndMask  stm32h7xx_hal_dma.o
    0x08007570   0x08007570   0x0000012a   Code   RO          957    .text.DMA_CalcDMAMUXRequestGenBaseAndMask  stm32h7xx_hal_dma.o
    0x0800769a   0x0800769a   0x00000006   PAD
    0x080076a0   0x080076a0   0x000000f0   Code   RO          951    .text.DMA_CheckFifoParam  stm32h7xx_hal_dma.o
    0x08007790   0x08007790   0x00000514   Code   RO          963    .text.DMA_SetConfig  stm32h7xx_hal_dma.o
    0x08007ca4   0x08007ca4   0x00000004   PAD
    0x08007ca8   0x08007ca8   0x00000154   Code   RO         3228    .text.DM_MIT_Ctrl   dm_motor.o
    0x08007dfc   0x08007dfc   0x00000004   PAD
    0x08007e00   0x08007e00   0x000003e0   Code   RO         3242    .text.DM_Motor_Control  dm_motor.o
    0x080081e0   0x080081e0   0x00000184   Code   RO         3236    .text.DM_Motor_Decode  dm_motor.o
    0x08008364   0x08008364   0x00000004   PAD
    0x08008368   0x08008368   0x00000052   Code   RO         3222    .text.DM_Motor_Disable  dm_motor.o
    0x080083ba   0x080083ba   0x00000006   PAD
    0x080083c0   0x080083c0   0x00000052   Code   RO         3220    .text.DM_Motor_Enable  dm_motor.o
    0x08008412   0x08008412   0x00000006   PAD
    0x08008418   0x08008418   0x0000014c   Code   RO         3240    .text.DM_Motor_Error_Judge  dm_motor.o
    0x08008564   0x08008564   0x00000004   PAD
    0x08008568   0x08008568   0x00000130   Code   RO         3234    .text.DM_Motor_Init  dm_motor.o
    0x08008698   0x08008698   0x0000001a   Code   RO         3238    .text.DM_Motor_Lost_Callback  dm_motor.o
    0x080086b2   0x080086b2   0x00000006   PAD
    0x080086b8   0x080086b8   0x00000034   Code   RO         3214    .text.DM_Motor_Set_Mode  dm_motor.o
    0x080086ec   0x080086ec   0x00000004   PAD
    0x080086f0   0x080086f0   0x00000012   Code   RO         3212    .text.DM_Motor_Set_Zeropoint  dm_motor.o
    0x08008702   0x08008702   0x00000006   PAD
    0x08008708   0x08008708   0x00000050   Code   RO         3216    .text.DM_Motor_Start  dm_motor.o
    0x08008758   0x08008758   0x00000050   Code   RO         3218    .text.DM_Motor_Stop  dm_motor.o
    0x080087a8   0x080087a8   0x00000094   Code   RO         3230    .text.DM_Pos_Speed_Ctrl  dm_motor.o
    0x0800883c   0x0800883c   0x00000004   PAD
    0x08008840   0x08008840   0x0000005c   Code   RO         3232    .text.DM_Speed_Ctrl  dm_motor.o
    0x0800889c   0x0800889c   0x00000004   PAD
    0x080088a0   0x080088a0   0x00000068   Code   RO         2778    .text.DWT_CNT_Update  bsp_dwt.o
    0x08008908   0x08008908   0x00000058   Code   RO         2792    .text.DWT_Delay     bsp_dwt.o
    0x08008960   0x08008960   0x0000004c   Code   RO         2780    .text.DWT_GetDeltaT  bsp_dwt.o
    0x080089ac   0x080089ac   0x00000004   PAD
    0x080089b0   0x080089b0   0x00000048   Code   RO         2788    .text.DWT_GetTimeline_ms  bsp_dwt.o
    0x080089f8   0x080089f8   0x00000050   Code   RO         2784    .text.DWT_GetTimeline_s  bsp_dwt.o
    0x08008a48   0x08008a48   0x0000008e   Code   RO         2776    .text.DWT_Init      bsp_dwt.o
    0x08008ad6   0x08008ad6   0x00000002   PAD
    0x08008ad8   0x08008ad8   0x000000fc   Code   RO         2786    .text.DWT_System_Time_Update  bsp_dwt.o
    0x08008bd4   0x08008bd4   0x00000004   PAD
    0x08008bd8   0x08008bd8   0x00000002   Code   RO          194    .text.DebugMon_Handler  stm32h7xx_it.o
    0x08008bda   0x08008bda   0x00000006   PAD
    0x08008be0   0x08008be0   0x00000248   Code   RO         3171    .text.Decode_DJI_Motor  dji_motor.o
    0x08008e28   0x08008e28   0x0000020a   Code   RO         3605    .text.Digital_PID_Position  digital_pid.o
    0x08009032   0x08009032   0x00000006   PAD
    0x08009038   0x08009038   0x00000032   Code   RO         3339    .text.Dot3d         user_lib.o
    0x0800906a   0x0800906a   0x00000006   PAD
    0x08009070   0x08009070   0x00000178   Code   RO         3841    .text.EKF_Quaternion_Init  ins.o
    0x080091e8   0x080091e8   0x00000014   Code   RO          222    .text.EXTI15_10_IRQHandler  stm32h7xx_it.o
    0x080091fc   0x080091fc   0x00000004   PAD
    0x08009200   0x08009200   0x00000102   Code   RO         3847    .text.EarthFrameToBodyFrame  ins.o
    0x08009302   0x08009302   0x00000006   PAD
    0x08009308   0x08009308   0x0000000e   Code   RO           15    .text.Error_Handler  main.o
    0x08009316   0x08009316   0x00000002   PAD
    0x08009318   0x08009318   0x00000028   Code   RO         2094    .text.ExitRun0Mode  system_stm32h7xx.o
    0x08009340   0x08009340   0x00000010   Code   RO          206    .text.FDCAN1_IT0_IRQHandler  stm32h7xx_it.o
    0x08009350   0x08009350   0x00000010   Code   RO          210    .text.FDCAN1_IT1_IRQHandler  stm32h7xx_it.o
    0x08009360   0x08009360   0x00000010   Code   RO          208    .text.FDCAN2_IT0_IRQHandler  stm32h7xx_it.o
    0x08009370   0x08009370   0x00000010   Code   RO          212    .text.FDCAN2_IT1_IRQHandler  stm32h7xx_it.o
    0x08009380   0x08009380   0x00000010   Code   RO          234    .text.FDCAN3_IT0_IRQHandler  stm32h7xx_it.o
    0x08009390   0x08009390   0x00000010   Code   RO          236    .text.FDCAN3_IT1_IRQHandler  stm32h7xx_it.o
    0x080093a0   0x080093a0   0x000002c2   Code   RO         1524    .text.FDCAN_CalcultateRamBlockAddresses  stm32h7xx_hal_fdcan.o
    0x08009662   0x08009662   0x00000006   PAD
    0x08009668   0x08009668   0x000000b8   Code   RO         1594    .text.FDCAN_CopyMessageToRAM  stm32h7xx_hal_fdcan.o
    0x08009720   0x08009720   0x00000154   Code   RO         3611    .text.F_Changing_Integral_Rate  digital_pid.o
    0x08009874   0x08009874   0x00000004   PAD
    0x08009878   0x08009878   0x00000036   Code   RO         3617    .text.F_Derivative_Filter  digital_pid.o
    0x080098ae   0x080098ae   0x00000002   PAD
    0x080098b0   0x080098b0   0x0000002a   Code   RO         3615    .text.F_Derivative_On_Measurement  digital_pid.o
    0x080098da   0x080098da   0x00000006   PAD
    0x080098e0   0x080098e0   0x000000b4   Code   RO         3607    .text.F_Error_Handler  digital_pid.o
    0x08009994   0x08009994   0x00000004   PAD
    0x08009998   0x08009998   0x00000180   Code   RO         3613    .text.F_Integral_Limit  digital_pid.o
    0x08009b18   0x08009b18   0x00000054   Code   RO         3619    .text.F_Output_Limit  digital_pid.o
    0x08009b6c   0x08009b6c   0x00000004   PAD
    0x08009b70   0x08009b70   0x00000032   Code   RO         3609    .text.F_Trapezoid_Intergral  digital_pid.o
    0x08009ba2   0x08009ba2   0x00000006   PAD
    0x08009ba8   0x08009ba8   0x0000004a   Code   RO         3694    .text.Frame_Device_Init  robot_frame_init.o
    0x08009bf2   0x08009bf2   0x00000006   PAD
    0x08009bf8   0x08009bf8   0x0000001a   Code   RO         3692    .text.Frame_MCU_Init  robot_frame_init.o
    0x08009c12   0x08009c12   0x00000006   PAD
    0x08009c18   0x08009c18   0x0000001c   Code   RO         3696    .text.Frame_Task_Init  robot_frame_init.o
    0x08009c34   0x08009c34   0x00000004   PAD
    0x08009c38   0x08009c38   0x0000006c   Code   RO         2924    .text.GPIO_Register  bsp_gpio.o
    0x08009ca4   0x08009ca4   0x00000004   PAD
    0x08009ca8   0x08009ca8   0x00000002   Code   RO         3760    .text.Gimbal_Console  gimbal_task.o
    0x08009caa   0x08009caa   0x00000006   PAD
    0x08009cb0   0x08009cb0   0x00000002   Code   RO         3754    .text.Gimbal_Handle_Exception  gimbal_task.o
    0x08009cb2   0x08009cb2   0x00000006   PAD
    0x08009cb8   0x08009cb8   0x00000002   Code   RO         3752    .text.Gimbal_Observer  gimbal_task.o
    0x08009cba   0x08009cba   0x00000006   PAD
    0x08009cc0   0x08009cc0   0x00000002   Code   RO         3748    .text.Gimbal_Publish  gimbal_task.o
    0x08009cc2   0x08009cc2   0x00000006   PAD
    0x08009cc8   0x08009cc8   0x00000002   Code   RO         3758    .text.Gimbal_Reference  gimbal_task.o
    0x08009cca   0x08009cca   0x00000006   PAD
    0x08009cd0   0x08009cd0   0x00000002   Code   RO         3762    .text.Gimbal_Send_Cmd  gimbal_task.o
    0x08009cd2   0x08009cd2   0x00000006   PAD
    0x08009cd8   0x08009cd8   0x00000002   Code   RO         3756    .text.Gimbal_Set_Mode  gimbal_task.o
    0x08009cda   0x08009cda   0x00000006   PAD
    0x08009ce0   0x08009ce0   0x00000062   Code   RO         3746    .text.Gimbal_Task   gimbal_task.o
    0x08009d42   0x08009d42   0x00000006   PAD
    0x08009d48   0x08009d48   0x00000088   Code   RO         3744    .text.Gimbal_Task_Init  gimbal_task.o
    0x08009dd0   0x08009dd0   0x00000978   Code   RO          967    .text.HAL_DMA_Abort  stm32h7xx_hal_dma.o
    0x0800a748   0x0800a748   0x000006aa   Code   RO          969    .text.HAL_DMA_Abort_IT  stm32h7xx_hal_dma.o
    0x0800adf2   0x0800adf2   0x00000006   PAD
    0x0800adf8   0x0800adf8   0x0000047c   Code   RO          959    .text.HAL_DMA_DeInit  stm32h7xx_hal_dma.o
    0x0800b274   0x0800b274   0x00000004   PAD
    0x0800b278   0x0800b278   0x0000000c   Code   RO          981    .text.HAL_DMA_GetError  stm32h7xx_hal_dma.o
    0x0800b284   0x0800b284   0x00000004   PAD
    0x0800b288   0x0800b288   0x000011c0   Code   RO          973    .text.HAL_DMA_IRQHandler  stm32h7xx_hal_dma.o
    0x0800c448   0x0800c448   0x00000960   Code   RO          949    .text.HAL_DMA_Init  stm32h7xx_hal_dma.o
    0x0800cda8   0x0800cda8   0x00000702   Code   RO          965    .text.HAL_DMA_Start_IT  stm32h7xx_hal_dma.o
    0x0800d4aa   0x0800d4aa   0x00000006   PAD
    0x0800d4b0   0x0800d4b0   0x00000042   Code   RO         1602    .text.HAL_FDCAN_AbortTxRequest  stm32h7xx_hal_fdcan.o
    0x0800d4f2   0x0800d4f2   0x00000006   PAD
    0x0800d4f8   0x0800d4f8   0x000000fe   Code   RO         1672    .text.HAL_FDCAN_ActivateNotification  stm32h7xx_hal_fdcan.o
    0x0800d5f6   0x0800d5f6   0x00000002   PAD
    0x0800d5f8   0x0800d5f8   0x000000ca   Code   RO         1592    .text.HAL_FDCAN_AddMessageToTxFifoQ  stm32h7xx_hal_fdcan.o
    0x0800d6c2   0x0800d6c2   0x00000006   PAD
    0x0800d6c8   0x0800d6c8   0x0000000a   Code   RO         1686    .text.HAL_FDCAN_ClockCalibrationCallback  stm32h7xx_hal_fdcan.o
    0x0800d6d2   0x0800d6d2   0x00000006   PAD
    0x0800d6d8   0x0800d6d8   0x000000a8   Code   RO         1552    .text.HAL_FDCAN_ConfigFifoWatermark  stm32h7xx_hal_fdcan.o
    0x0800d780   0x0800d780   0x00000116   Code   RO         1544    .text.HAL_FDCAN_ConfigFilter  stm32h7xx_hal_fdcan.o
    0x0800d896   0x0800d896   0x00000002   PAD
    0x0800d898   0x0800d898   0x0000005c   Code   RO         1546    .text.HAL_FDCAN_ConfigGlobalFilter  stm32h7xx_hal_fdcan.o
    0x0800d8f4   0x0800d8f4   0x00000004   PAD
    0x0800d8f8   0x0800d8f8   0x0000007a   Code   RO         1550    .text.HAL_FDCAN_ConfigRxFifoOverwrite  stm32h7xx_hal_fdcan.o
    0x0800d972   0x0800d972   0x00000006   PAD
    0x0800d978   0x0800d978   0x00000008   Code   RO         1714    .text.HAL_FDCAN_ErrorCallback  stm32h7xx_hal_fdcan.o
    0x0800d980   0x0800d980   0x0000000a   Code   RO         1704    .text.HAL_FDCAN_ErrorStatusCallback  stm32h7xx_hal_fdcan.o
    0x0800d98a   0x0800d98a   0x00000006   PAD
    0x0800d990   0x0800d990   0x00000034   Code   RO         1618    .text.HAL_FDCAN_GetRxFifoFillLevel  stm32h7xx_hal_fdcan.o
    0x0800d9c4   0x0800d9c4   0x00000004   PAD
    0x0800d9c8   0x0800d9c8   0x000002f8   Code   RO         1604    .text.HAL_FDCAN_GetRxMessage  stm32h7xx_hal_fdcan.o
    0x0800dcc0   0x0800dcc0   0x00000018   Code   RO         1620    .text.HAL_FDCAN_GetTxFifoFreeLevel  stm32h7xx_hal_fdcan.o
    0x0800dcd8   0x0800dcd8   0x00000008   Code   RO         1682    .text.HAL_FDCAN_HighPriorityMessageCallback  stm32h7xx_hal_fdcan.o
    0x0800dce0   0x0800dce0   0x000005e2   Code   RO         1680    .text.HAL_FDCAN_IRQHandler  stm32h7xx_hal_fdcan.o
    0x0800e2c2   0x0800e2c2   0x00000006   PAD
    0x0800e2c8   0x0800e2c8   0x000003e0   Code   RO         1520    .text.HAL_FDCAN_Init  stm32h7xx_hal_fdcan.o
    0x0800e6a8   0x0800e6a8   0x00000294   Code   RO           65    .text.HAL_FDCAN_MspInit  fdcan.o
    0x0800e93c   0x0800e93c   0x00000004   PAD
    0x0800e940   0x0800e940   0x00000008   Code   RO         1698    .text.HAL_FDCAN_RxBufferNewMessageCallback  stm32h7xx_hal_fdcan.o
    0x0800e948   0x0800e948   0x00000014   Code   RO         2849    .text.HAL_FDCAN_RxFifo0Callback  bsp_can.o
    0x0800e95c   0x0800e95c   0x00000004   PAD
    0x0800e960   0x0800e960   0x00000014   Code   RO         2853    .text.HAL_FDCAN_RxFifo1Callback  bsp_can.o
    0x0800e974   0x0800e974   0x00000004   PAD
    0x0800e978   0x0800e978   0x00000050   Code   RO         1590    .text.HAL_FDCAN_Start  stm32h7xx_hal_fdcan.o
    0x0800e9c8   0x0800e9c8   0x000000ea   Code   RO         1528    .text.HAL_FDCAN_Stop  stm32h7xx_hal_fdcan.o
    0x0800eab2   0x0800eab2   0x00000006   PAD
    0x0800eab8   0x0800eab8   0x0000000a   Code   RO         1712    .text.HAL_FDCAN_TT_GlobalTimeCallback  stm32h7xx_hal_fdcan.o
    0x0800eac2   0x0800eac2   0x00000006   PAD
    0x0800eac8   0x0800eac8   0x0000000a   Code   RO         1706    .text.HAL_FDCAN_TT_ScheduleSyncCallback  stm32h7xx_hal_fdcan.o
    0x0800ead2   0x0800ead2   0x00000006   PAD
    0x0800ead8   0x0800ead8   0x0000000c   Code   RO         1710    .text.HAL_FDCAN_TT_StopWatchCallback  stm32h7xx_hal_fdcan.o
    0x0800eae4   0x0800eae4   0x00000004   PAD
    0x0800eae8   0x0800eae8   0x0000000a   Code   RO         1708    .text.HAL_FDCAN_TT_TimeMarkCallback  stm32h7xx_hal_fdcan.o
    0x0800eaf2   0x0800eaf2   0x00000006   PAD
    0x0800eaf8   0x0800eaf8   0x00000008   Code   RO         1702    .text.HAL_FDCAN_TimeoutOccurredCallback  stm32h7xx_hal_fdcan.o
    0x0800eb00   0x0800eb00   0x00000008   Code   RO         1700    .text.HAL_FDCAN_TimestampWraparoundCallback  stm32h7xx_hal_fdcan.o
    0x0800eb08   0x0800eb08   0x0000000a   Code   RO         1684    .text.HAL_FDCAN_TxBufferAbortCallback  stm32h7xx_hal_fdcan.o
    0x0800eb12   0x0800eb12   0x00000006   PAD
    0x0800eb18   0x0800eb18   0x0000000a   Code   RO         1696    .text.HAL_FDCAN_TxBufferCompleteCallback  stm32h7xx_hal_fdcan.o
    0x0800eb22   0x0800eb22   0x00000006   PAD
    0x0800eb28   0x0800eb28   0x0000000a   Code   RO         1688    .text.HAL_FDCAN_TxEventFifoCallback  stm32h7xx_hal_fdcan.o
    0x0800eb32   0x0800eb32   0x00000006   PAD
    0x0800eb38   0x0800eb38   0x00000008   Code   RO         1694    .text.HAL_FDCAN_TxFifoEmptyCallback  stm32h7xx_hal_fdcan.o
    0x0800eb40   0x0800eb40   0x0000022a   Code   RO          899    .text.HAL_GPIO_DeInit  stm32h7xx_hal_gpio.o
    0x0800ed6a   0x0800ed6a   0x00000006   PAD
    0x0800ed70   0x0800ed70   0x0000005c   Code   RO         2922    .text.HAL_GPIO_EXTI_Callback  bsp_gpio.o
    0x0800edcc   0x0800edcc   0x00000004   PAD
    0x0800edd0   0x0800edd0   0x00000034   Code   RO          909    .text.HAL_GPIO_EXTI_IRQHandler  stm32h7xx_hal_gpio.o
    0x0800ee04   0x0800ee04   0x00000004   PAD
    0x0800ee08   0x0800ee08   0x000003a8   Code   RO          897    .text.HAL_GPIO_Init  stm32h7xx_hal_gpio.o
    0x0800f1b0   0x0800f1b0   0x0000002e   Code   RO          901    .text.HAL_GPIO_ReadPin  stm32h7xx_hal_gpio.o
    0x0800f1de   0x0800f1de   0x00000002   PAD
    0x0800f1e0   0x0800f1e0   0x0000002e   Code   RO          903    .text.HAL_GPIO_WritePin  stm32h7xx_hal_gpio.o
    0x0800f20e   0x0800f20e   0x00000002   PAD
    0x0800f210   0x0800f210   0x0000000c   Code   RO         1201    .text.HAL_GetTick   stm32h7xx_hal.o
    0x0800f21c   0x0800f21c   0x00000004   PAD
    0x0800f220   0x0800f220   0x00000098   Code   RO         1476    .text.HAL_I2CEx_ConfigAnalogFilter  stm32h7xx_hal_i2c_ex.o
    0x0800f2b8   0x0800f2b8   0x000000a2   Code   RO         1478    .text.HAL_I2CEx_ConfigDigitalFilter  stm32h7xx_hal_i2c_ex.o
    0x0800f35a   0x0800f35a   0x00000006   PAD
    0x0800f360   0x0800f360   0x00000114   Code   RO         1307    .text.HAL_I2C_Init  stm32h7xx_hal_i2c.o
    0x0800f474   0x0800f474   0x00000004   PAD
    0x0800f478   0x0800f478   0x000000aa   Code   RO           82    .text.HAL_I2C_MspInit  i2c.o
    0x0800f522   0x0800f522   0x00000006   PAD
    0x0800f528   0x0800f528   0x0000001a   Code   RO         1199    .text.HAL_IncTick   stm32h7xx_hal.o
    0x0800f542   0x0800f542   0x00000006   PAD
    0x0800f548   0x0800f548   0x0000007a   Code   RO         1189    .text.HAL_Init      stm32h7xx_hal.o
    0x0800f5c2   0x0800f5c2   0x00000006   PAD
    0x0800f5c8   0x0800f5c8   0x000000dc   Code   RO          253    .text.HAL_InitTick  stm32h7xx_hal_timebase_tim.o
    0x0800f6a4   0x0800f6a4   0x00000004   PAD
    0x0800f6a8   0x0800f6a8   0x00000032   Code   RO          245    .text.HAL_MspInit   stm32h7xx_hal_msp.o
    0x0800f6da   0x0800f6da   0x00000006   PAD
    0x0800f6e0   0x0800f6e0   0x00000014   Code   RO          635    .text.HAL_NVIC_DisableIRQ  stm32h7xx_hal_cortex.o
    0x0800f6f4   0x0800f6f4   0x00000004   PAD
    0x0800f6f8   0x0800f6f8   0x00000014   Code   RO          631    .text.HAL_NVIC_EnableIRQ  stm32h7xx_hal_cortex.o
    0x0800f70c   0x0800f70c   0x00000004   PAD
    0x0800f710   0x0800f710   0x0000002e   Code   RO          623    .text.HAL_NVIC_SetPriority  stm32h7xx_hal_cortex.o
    0x0800f73e   0x0800f73e   0x00000002   PAD
    0x0800f740   0x0800f740   0x00000010   Code   RO          619    .text.HAL_NVIC_SetPriorityGrouping  stm32h7xx_hal_cortex.o
    0x0800f750   0x0800f750   0x000000a2   Code   RO         1106    .text.HAL_PWREx_ConfigSupply  stm32h7xx_hal_pwr_ex.o
    0x0800f7f2   0x0800f7f2   0x00000006   PAD
    0x0800f7f8   0x0800f7f8   0x00000026   Code   RO          747    .text.HAL_RCCEx_GetD3PCLK1Freq  stm32h7xx_hal_rcc_ex.o
    0x0800f81e   0x0800f81e   0x00000002   PAD
    0x0800f820   0x0800f820   0x00000298   Code   RO          743    .text.HAL_RCCEx_GetPLL2ClockFreq  stm32h7xx_hal_rcc_ex.o
    0x0800fab8   0x0800fab8   0x00000298   Code   RO          745    .text.HAL_RCCEx_GetPLL3ClockFreq  stm32h7xx_hal_rcc_ex.o
    0x0800fd50   0x0800fd50   0x00000fec   Code   RO          731    .text.HAL_RCCEx_PeriphCLKConfig  stm32h7xx_hal_rcc_ex.o
    0x08010d3c   0x08010d3c   0x00000004   PAD
    0x08010d40   0x08010d40   0x00000498   Code   RO          700    .text.HAL_RCC_ClockConfig  stm32h7xx_hal_rcc.o
    0x080111d8   0x080111d8   0x00000088   Code   RO          718    .text.HAL_RCC_GetClockConfig  stm32h7xx_hal_rcc.o
    0x08011260   0x08011260   0x00000056   Code   RO          710    .text.HAL_RCC_GetHCLKFreq  stm32h7xx_hal_rcc.o
    0x080112b6   0x080112b6   0x00000002   PAD
    0x080112b8   0x080112b8   0x00000026   Code   RO          712    .text.HAL_RCC_GetPCLK1Freq  stm32h7xx_hal_rcc.o
    0x080112de   0x080112de   0x00000002   PAD
    0x080112e0   0x080112e0   0x00000026   Code   RO          714    .text.HAL_RCC_GetPCLK2Freq  stm32h7xx_hal_rcc.o
    0x08011306   0x08011306   0x00000002   PAD
    0x08011308   0x08011308   0x000002fc   Code   RO          702    .text.HAL_RCC_GetSysClockFreq  stm32h7xx_hal_rcc.o
    0x08011604   0x08011604   0x00000004   PAD
    0x08011608   0x08011608   0x00000a20   Code   RO          698    .text.HAL_RCC_OscConfig  stm32h7xx_hal_rcc.o
    0x08012028   0x08012028   0x00000008   Code   RO         1745    .text.HAL_RNG_ErrorCallback  stm32h7xx_hal_rng.o
    0x08012030   0x08012030   0x000000d8   Code   RO         1743    .text.HAL_RNG_IRQHandler  stm32h7xx_hal_rng.o
    0x08012108   0x08012108   0x00000156   Code   RO         1729    .text.HAL_RNG_Init  stm32h7xx_hal_rng.o
    0x0801225e   0x0801225e   0x00000002   PAD
    0x08012260   0x08012260   0x00000072   Code   RO           96    .text.HAL_RNG_MspInit  rng.o
    0x080122d2   0x080122d2   0x00000006   PAD
    0x080122d8   0x080122d8   0x0000000a   Code   RO         1747    .text.HAL_RNG_ReadyDataCallback  stm32h7xx_hal_rng.o
    0x080122e2   0x080122e2   0x00000006   PAD
    0x080122e8   0x080122e8   0x000000d0   Code   RO         2045    .text.HAL_RS485Ex_Init  stm32h7xx_hal_uart_ex.o
    0x080123b8   0x080123b8   0x00000008   Code   RO         1857    .text.HAL_SPI_ErrorCallback  stm32h7xx_hal_spi.o
    0x080123c0   0x080123c0   0x00000390   Code   RO         1853    .text.HAL_SPI_IRQHandler  stm32h7xx_hal_spi.o
    0x08012750   0x08012750   0x00000292   Code   RO         1777    .text.HAL_SPI_Init  stm32h7xx_hal_spi.o
    0x080129e2   0x080129e2   0x00000006   PAD
    0x080129e8   0x080129e8   0x0000025c   Code   RO          112    .text.HAL_SPI_MspInit  spi.o
    0x08012c44   0x08012c44   0x00000004   PAD
    0x08012c48   0x08012c48   0x0000009c   Code   RO         2908    .text.HAL_SPI_RxCpltCallback  bsp_spi.o
    0x08012ce4   0x08012ce4   0x00000004   PAD
    0x08012ce8   0x08012ce8   0x00000008   Code   RO         1855    .text.HAL_SPI_SuspendCallback  stm32h7xx_hal_spi.o
    0x08012cf0   0x08012cf0   0x000003e4   Code   RO         1787    .text.HAL_SPI_Transmit  stm32h7xx_hal_spi.o
    0x080130d4   0x080130d4   0x00000004   PAD
    0x080130d8   0x080130d8   0x00000704   Code   RO         1795    .text.HAL_SPI_TransmitReceive  stm32h7xx_hal_spi.o
    0x080137dc   0x080137dc   0x00000004   PAD
    0x080137e0   0x080137e0   0x0000039e   Code   RO         1829    .text.HAL_SPI_TransmitReceive_DMA  stm32h7xx_hal_spi.o
    0x08013b7e   0x08013b7e   0x00000002   PAD
    0x08013b80   0x08013b80   0x0000024a   Code   RO         1813    .text.HAL_SPI_TransmitReceive_IT  stm32h7xx_hal_spi.o
    0x08013dca   0x08013dca   0x00000006   PAD
    0x08013dd0   0x08013dd0   0x000002aa   Code   RO         1815    .text.HAL_SPI_Transmit_DMA  stm32h7xx_hal_spi.o
    0x0801407a   0x0801407a   0x00000006   PAD
    0x08014080   0x08014080   0x0000016a   Code   RO         1797    .text.HAL_SPI_Transmit_IT  stm32h7xx_hal_spi.o
    0x080141ea   0x080141ea   0x00000006   PAD
    0x080141f0   0x080141f0   0x00000008   Code   RO         1863    .text.HAL_SPI_TxCpltCallback  stm32h7xx_hal_spi.o
    0x080141f8   0x080141f8   0x00000008   Code   RO         1867    .text.HAL_SPI_TxHalfCpltCallback  stm32h7xx_hal_spi.o
    0x08014200   0x08014200   0x00000010   Code   RO         2910    .text.HAL_SPI_TxRxCpltCallback  bsp_spi.o
    0x08014210   0x08014210   0x00000008   Code   RO         1871    .text.HAL_SPI_TxRxHalfCpltCallback  stm32h7xx_hal_spi.o
    0x08014218   0x08014218   0x0000001e   Code   RO         1239    .text.HAL_SYSCFG_AnalogSwitchConfig  stm32h7xx_hal.o
    0x08014236   0x08014236   0x00000002   PAD
    0x08014238   0x08014238   0x00000008   Code   RO          606    .text.HAL_TIMEx_Break2Callback  stm32h7xx_hal_tim_ex.o
    0x08014240   0x08014240   0x00000008   Code   RO          604    .text.HAL_TIMEx_BreakCallback  stm32h7xx_hal_tim_ex.o
    0x08014248   0x08014248   0x00000008   Code   RO          600    .text.HAL_TIMEx_CommutCallback  stm32h7xx_hal_tim_ex.o
    0x08014250   0x08014250   0x0000012e   Code   RO          586    .text.HAL_TIMEx_ConfigBreakDeadTime  stm32h7xx_hal_tim_ex.o
    0x0801437e   0x0801437e   0x00000002   PAD
    0x08014380   0x08014380   0x0000017c   Code   RO          584    .text.HAL_TIMEx_MasterConfigSynchronization  stm32h7xx_hal_tim_ex.o
    0x080144fc   0x080144fc   0x00000004   PAD
    0x08014500   0x08014500   0x000000a8   Code   RO          267    .text.HAL_TIM_Base_Init  stm32h7xx_hal_tim.o
    0x080145a8   0x080145a8   0x00000008   Code   RO          269    .text.HAL_TIM_Base_MspInit  stm32h7xx_hal_tim.o
    0x080145b0   0x080145b0   0x00000128   Code   RO          281    .text.HAL_TIM_Base_Start_IT  stm32h7xx_hal_tim.o
    0x080146d8   0x080146d8   0x00000008   Code   RO          403    .text.HAL_TIM_IC_CaptureCallback  stm32h7xx_hal_tim.o
    0x080146e0   0x080146e0   0x00000250   Code   RO          401    .text.HAL_TIM_IRQHandler  stm32h7xx_hal_tim.o
    0x08014930   0x08014930   0x00000158   Code   RO          129    .text.HAL_TIM_MspPostInit  tim.o
    0x08014a88   0x08014a88   0x00000008   Code   RO          405    .text.HAL_TIM_OC_DelayElapsedCallback  stm32h7xx_hal_tim.o
    0x08014a90   0x08014a90   0x000001b0   Code   RO          437    .text.HAL_TIM_PWM_ConfigChannel  stm32h7xx_hal_tim.o
    0x08014c40   0x08014c40   0x000000a8   Code   RO          321    .text.HAL_TIM_PWM_Init  stm32h7xx_hal_tim.o
    0x08014ce8   0x08014ce8   0x000000ce   Code   RO          137    .text.HAL_TIM_PWM_MspInit  tim.o
    0x08014db6   0x08014db6   0x00000002   PAD
    0x08014db8   0x08014db8   0x0000009e   Code   RO         2812    .text.HAL_TIM_PWM_PulseFinishedCallback  bsp_pwm.o
    0x08014e56   0x08014e56   0x00000002   PAD
    0x08014e58   0x08014e58   0x000002a2   Code   RO          329    .text.HAL_TIM_PWM_Start  stm32h7xx_hal_tim.o
    0x080150fa   0x080150fa   0x00000006   PAD
    0x08015100   0x08015100   0x00000022   Code   RO           17    .text.HAL_TIM_PeriodElapsedCallback  main.o
    0x08015122   0x08015122   0x00000006   PAD
    0x08015128   0x08015128   0x00000008   Code   RO          411    .text.HAL_TIM_TriggerCallback  stm32h7xx_hal_tim.o
    0x08015130   0x08015130   0x0000007c   Code   RO         2067    .text.HAL_UARTEx_DisableFifoMode  stm32h7xx_hal_uart_ex.o
    0x080151ac   0x080151ac   0x00000004   PAD
    0x080151b0   0x080151b0   0x000000b0   Code   RO         2077    .text.HAL_UARTEx_ReceiveToIdle_DMA  stm32h7xx_hal_uart_ex.o
    0x08015260   0x08015260   0x000003a0   Code   RO         2885    .text.HAL_UARTEx_RxEventCallback  bsp_usart.o
    0x08015600   0x08015600   0x00000008   Code   RO         2049    .text.HAL_UARTEx_RxFifoFullCallback  stm32h7xx_hal_uart_ex.o
    0x08015608   0x08015608   0x0000008c   Code   RO         2071    .text.HAL_UARTEx_SetRxFifoThreshold  stm32h7xx_hal_uart_ex.o
    0x08015694   0x08015694   0x00000004   PAD
    0x08015698   0x08015698   0x0000008c   Code   RO         2069    .text.HAL_UARTEx_SetTxFifoThreshold  stm32h7xx_hal_uart_ex.o
    0x08015724   0x08015724   0x00000004   PAD
    0x08015728   0x08015728   0x00000008   Code   RO         2051    .text.HAL_UARTEx_TxFifoEmptyCallback  stm32h7xx_hal_uart_ex.o
    0x08015730   0x08015730   0x00000008   Code   RO         2047    .text.HAL_UARTEx_WakeupCallback  stm32h7xx_hal_uart_ex.o
    0x08015738   0x08015738   0x00000120   Code   RO         1953    .text.HAL_UART_DMAStop  stm32h7xx_hal_uart.o
    0x08015858   0x08015858   0x0000007c   Code   RO         1913    .text.HAL_UART_DeInit  stm32h7xx_hal_uart.o
    0x080158d4   0x080158d4   0x00000004   PAD
    0x080158d8   0x080158d8   0x00000460   Code   RO         2887    .text.HAL_UART_ErrorCallback  bsp_usart.o
    0x08015d38   0x08015d38   0x000006fe   Code   RO         1985    .text.HAL_UART_IRQHandler  stm32h7xx_hal_uart.o
    0x08016436   0x08016436   0x00000002   PAD
    0x08016438   0x08016438   0x000000aa   Code   RO         1897    .text.HAL_UART_Init  stm32h7xx_hal_uart.o
    0x080164e2   0x080164e2   0x00000006   PAD
    0x080164e8   0x080164e8   0x000001a4   Code   RO          166    .text.HAL_UART_MspDeInit  usart.o
    0x0801668c   0x0801668c   0x00000004   PAD
    0x08016690   0x08016690   0x00000588   Code   RO          164    .text.HAL_UART_MspInit  usart.o
    0x08016c18   0x08016c18   0x00000008   Code   RO         1999    .text.HAL_UART_RxCpltCallback  stm32h7xx_hal_uart.o
    0x08016c20   0x08016c20   0x00000008   Code   RO         2001    .text.HAL_UART_RxHalfCpltCallback  stm32h7xx_hal_uart.o
    0x08016c28   0x08016c28   0x00000138   Code   RO         1917    .text.HAL_UART_Transmit  stm32h7xx_hal_uart.o
    0x08016d60   0x08016d60   0x00000108   Code   RO         1937    .text.HAL_UART_Transmit_DMA  stm32h7xx_hal_uart.o
    0x08016e68   0x08016e68   0x00000130   Code   RO         1923    .text.HAL_UART_Transmit_IT  stm32h7xx_hal_uart.o
    0x08016f98   0x08016f98   0x00000008   Code   RO         1995    .text.HAL_UART_TxCpltCallback  stm32h7xx_hal_uart.o
    0x08016fa0   0x08016fa0   0x00000008   Code   RO         1997    .text.HAL_UART_TxHalfCpltCallback  stm32h7xx_hal_uart.o
    0x08016fa8   0x08016fa8   0x0000018e   Code   RO         3483    .text.H_K_R_Adjustment  kalman_filter.o
    0x08017136   0x08017136   0x00000002   PAD
    0x08017138   0x08017138   0x00000004   Code   RO          186    .text.HardFault_Handler  stm32h7xx_it.o
    0x0801713c   0x0801713c   0x00000004   PAD
    0x08017140   0x08017140   0x00000260   Code   RO         3440    .text.IMU_QuaternionEKF_F_Linearization_P_Fading  quaternionekf.o
    0x080173a0   0x080173a0   0x0000014e   Code   RO         3436    .text.IMU_QuaternionEKF_Init  quaternionekf.o
    0x080174ee   0x080174ee   0x00000002   PAD
    0x080174f0   0x080174f0   0x00000048   Code   RO         3438    .text.IMU_QuaternionEKF_Observe  quaternionekf.o
    0x08017538   0x08017538   0x00000162   Code   RO         3442    .text.IMU_QuaternionEKF_SetH  quaternionekf.o
    0x0801769a   0x0801769a   0x00000006   PAD
    0x080176a0   0x080176a0   0x000005e0   Code   RO         3446    .text.IMU_QuaternionEKF_Update  quaternionekf.o
    0x08017c80   0x08017c80   0x00000660   Code   RO         3444    .text.IMU_QuaternionEKF_xhatUpdate  quaternionekf.o
    0x080182e0   0x080182e0   0x0000041c   Code   RO         3843    .text.INS_Calculate  ins.o
    0x080186fc   0x080186fc   0x00000004   PAD
    0x08018700   0x08018700   0x000000e0   Code   RO         3837    .text.INS_Data_Update  ins.o
    0x080187e0   0x080187e0   0x0000005c   Code   RO         3839    .text.INS_Init      ins.o
    0x0801883c   0x0801883c   0x00000004   PAD
    0x08018840   0x08018840   0x00000050   Code   RO         3870    .text.INS_Task      ins_task.o
    0x08018890   0x08018890   0x00000088   Code   RO         3868    .text.INS_Task_Init  ins_task.o
    0x08018918   0x08018918   0x00000254   Code   RO         3549    .text.Inverse_Kinematics  vmc.o
    0x08018b6c   0x08018b6c   0x00000004   PAD
    0x08018b70   0x08018b70   0x00000036   Code   RO         3343    .text.Judge_IF_NAN  user_lib.o
    0x08018ba6   0x08018ba6   0x00000002   PAD
    0x08018ba8   0x08018ba8   0x000005f2   Code   RO         3479    .text.Kalman_Filter_Init  kalman_filter.o
    0x0801919a   0x0801919a   0x00000006   PAD
    0x080191a0   0x080191a0   0x00000062   Code   RO         3481    .text.Kalman_Filter_Measure  kalman_filter.o
    0x08019202   0x08019202   0x00000006   PAD
    0x08019208   0x08019208   0x00000080   Code   RO         3493    .text.Kalman_Filter_P_Update  kalman_filter.o
    0x08019288   0x08019288   0x0000007e   Code   RO         3487    .text.Kalman_Filter_PminusUpdate  kalman_filter.o
    0x08019306   0x08019306   0x00000002   PAD
    0x08019308   0x08019308   0x000000fa   Code   RO         3489    .text.Kalman_Filter_SetK  kalman_filter.o
    0x08019402   0x08019402   0x00000006   PAD
    0x08019408   0x08019408   0x00000190   Code   RO         3495    .text.Kalman_Filter_Update  kalman_filter.o
    0x08019598   0x08019598   0x000000a2   Code   RO         3485    .text.Kalman_Filter_xhatMinusUpdate  kalman_filter.o
    0x0801963a   0x0801963a   0x00000006   PAD
    0x08019640   0x08019640   0x000000ac   Code   RO         3491    .text.Kalman_Filter_xhatUpdate  kalman_filter.o
    0x080196ec   0x080196ec   0x00000004   PAD
    0x080196f0   0x080196f0   0x00000098   Code   RO         3508    .text.Kalman_One_Filter  kalman_one_filter.o
    0x08019788   0x08019788   0x00000032   Code   RO         3506    .text.Kalman_One_Init  kalman_one_filter.o
    0x080197ba   0x080197ba   0x00000006   PAD
    0x080197c0   0x080197c0   0x0000003a   Code   RO         3543    .text.LQR_K_Calc    vmc.o
    0x080197fa   0x080197fa   0x00000006   PAD
    0x08019800   0x08019800   0x00000164   Code   RO         3545    .text.Leg_Force_Calc  vmc.o
    0x08019964   0x08019964   0x00000004   PAD
    0x08019968   0x08019968   0x00000050   Code   RO         3950    .text.Leg_Saturate_Torque  balance_chassis.o
    0x080199b8   0x080199b8   0x00000084   Code   RO           51    .text.MX_DMA_Init   dma.o
    0x08019a3c   0x08019a3c   0x00000004   PAD
    0x08019a40   0x08019a40   0x00000082   Code   RO           59    .text.MX_FDCAN1_Init  fdcan.o
    0x08019ac2   0x08019ac2   0x00000006   PAD
    0x08019ac8   0x08019ac8   0x00000082   Code   RO           61    .text.MX_FDCAN2_Init  fdcan.o
    0x08019b4a   0x08019b4a   0x00000006   PAD
    0x08019b50   0x08019b50   0x0000007e   Code   RO           63    .text.MX_FDCAN3_Init  fdcan.o
    0x08019bce   0x08019bce   0x00000002   PAD
    0x08019bd0   0x08019bd0   0x00000024   Code   RO           35    .text.MX_FREERTOS_Init  freertos.o
    0x08019bf4   0x08019bf4   0x00000004   PAD
    0x08019bf8   0x08019bf8   0x00000134   Code   RO           27    .text.MX_GPIO_Init  gpio.o
    0x08019d2c   0x08019d2c   0x00000004   PAD
    0x08019d30   0x08019d30   0x00000076   Code   RO           80    .text.MX_I2C2_Init  i2c.o
    0x08019da6   0x08019da6   0x00000002   PAD
    0x08019da8   0x08019da8   0x00000028   Code   RO           94    .text.MX_RNG_Init   rng.o
    0x08019dd0   0x08019dd0   0x00000072   Code   RO          108    .text.MX_SPI2_Init  spi.o
    0x08019e42   0x08019e42   0x00000006   PAD
    0x08019e48   0x08019e48   0x00000072   Code   RO          110    .text.MX_SPI6_Init  spi.o
    0x08019eba   0x08019eba   0x00000006   PAD
    0x08019ec0   0x08019ec0   0x000000a4   Code   RO          135    .text.MX_TIM12_Init  tim.o
    0x08019f64   0x08019f64   0x00000004   PAD
    0x08019f68   0x08019f68   0x00000104   Code   RO          127    .text.MX_TIM1_Init  tim.o
    0x0801a06c   0x0801a06c   0x00000004   PAD
    0x0801a070   0x0801a070   0x000000b2   Code   RO          131    .text.MX_TIM2_Init  tim.o
    0x0801a122   0x0801a122   0x00000006   PAD
    0x0801a128   0x0801a128   0x000000a0   Code   RO          133    .text.MX_TIM3_Init  tim.o
    0x0801a1c8   0x0801a1c8   0x000000a0   Code   RO          152    .text.MX_UART5_Init  usart.o
    0x0801a268   0x0801a268   0x0000008e   Code   RO          154    .text.MX_UART7_Init  usart.o
    0x0801a2f6   0x0801a2f6   0x00000002   PAD
    0x0801a2f8   0x0801a2f8   0x0000008e   Code   RO          162    .text.MX_USART10_UART_Init  usart.o
    0x0801a386   0x0801a386   0x00000002   PAD
    0x0801a388   0x0801a388   0x0000008e   Code   RO          156    .text.MX_USART1_UART_Init  usart.o
    0x0801a416   0x0801a416   0x00000002   PAD
    0x0801a418   0x0801a418   0x00000092   Code   RO          158    .text.MX_USART2_UART_Init  usart.o
    0x0801a4aa   0x0801a4aa   0x00000006   PAD
    0x0801a4b0   0x0801a4b0   0x00000092   Code   RO          160    .text.MX_USART3_UART_Init  usart.o
    0x0801a542   0x0801a542   0x00000006   PAD
    0x0801a548   0x0801a548   0x00000004   Code   RO          188    .text.MemManage_Handler  stm32h7xx_it.o
    0x0801a54c   0x0801a54c   0x00000004   PAD
    0x0801a550   0x0801a550   0x000000a0   Code   RO         3061    .text.Mode_handle   buzzer.o
    0x0801a5f0   0x0801a5f0   0x000002e0   Code   RO         3169    .text.Motor_Sender_Grouping  dji_motor.o
    0x0801a8d0   0x0801a8d0   0x00000004   Code   RO          184    .text.NMI_Handler   stm32h7xx_it.o
    0x0801a8d4   0x0801a8d4   0x00000004   PAD
    0x0801a8d8   0x0801a8d8   0x0000006c   Code   RO          629    .text.NVIC_EncodePriority  stm32h7xx_hal_cortex.o
    0x0801a944   0x0801a944   0x00000004   PAD
    0x0801a948   0x0801a948   0x00000248   Code   RO         3675    .text.Nlms_Filter   lms.o
    0x0801ab90   0x0801ab90   0x000000da   Code   RO         3673    .text.Nlms_Init     lms.o
    0x0801ac6a   0x0801ac6a   0x00000006   PAD
    0x0801ac70   0x0801ac70   0x00000064   Code   RO         3333    .text.Norm3d        user_lib.o
    0x0801acd4   0x0801acd4   0x00000004   PAD
    0x0801acd8   0x0801acd8   0x00000028   Code   RO         3335    .text.NormOf3d      user_lib.o
    0x0801ad00   0x0801ad00   0x00000160   Code   RO         3065    .text.NotePlay      buzzer.o
    0x0801ae60   0x0801ae60   0x00000134   Code   RO         3067    .text.Note_handle   buzzer.o
    0x0801af94   0x0801af94   0x00000004   PAD
    0x0801af98   0x0801af98   0x00000156   Code   RO         3296    .text.PID_Increment  pid.o
    0x0801b0ee   0x0801b0ee   0x00000002   PAD
    0x0801b0f0   0x0801b0f0   0x00000060   Code   RO         3290    .text.PID_Init      pid.o
    0x0801b150   0x0801b150   0x00000140   Code   RO         3292    .text.PID_Position  pid.o
    0x0801b290   0x0801b290   0x000000b0   Code   RO         2814    .text.PWM_Register  bsp_pwm.o
    0x0801b340   0x0801b340   0x000000c8   Code   RO         2816    .text.PWM_Select_Tclk  bsp_pwm.o
    0x0801b408   0x0801b408   0x0000015e   Code   RO         2820    .text.PWM_Set_DutyRatio  bsp_pwm.o
    0x0801b566   0x0801b566   0x00000002   PAD
    0x0801b568   0x0801b568   0x0000005e   Code   RO         2818    .text.PWM_Set_Period  bsp_pwm.o
    0x0801b5c6   0x0801b5c6   0x0000000a   PAD
    0x0801b5d0   0x0801b5d0   0x00000064   Code   RO         2760    .text.PendSV_Handler  port.o
    0x0801b634   0x0801b634   0x00000004   PAD
    0x0801b638   0x0801b638   0x00000038   Code   RO         3899    .text.Procotol_Task  procotol_task.o
    0x0801b670   0x0801b670   0x00000088   Code   RO         3897    .text.Procotol_Task_Init  procotol_task.o
    0x0801b6f8   0x0801b6f8   0x00000096   Code   RO         2981    .text.Publisher_Register  message_center.o
    0x0801b78e   0x0801b78e   0x00000002   PAD
    0x0801b790   0x0801b790   0x000001ca   Code   RO          733    .text.RCCEx_PLL2_Config  stm32h7xx_hal_rcc_ex.o
    0x0801b95a   0x0801b95a   0x00000006   PAD
    0x0801b960   0x0801b960   0x000001ca   Code   RO          735    .text.RCCEx_PLL3_Config  stm32h7xx_hal_rcc_ex.o
    0x0801bb2a   0x0801bb2a   0x00000006   PAD
    0x0801bb30   0x0801bb30   0x00000002   Code   RO         3888    .text.RC_Receive_Control  procotol.o
    0x0801bb32   0x0801bb32   0x00000006   PAD
    0x0801bb38   0x0801bb38   0x00000010   Code   RO          228    .text.RNG_IRQHandler  stm32h7xx_it.o
    0x0801bb48   0x0801bb48   0x00000010   Code   RO         3690    .text.Robot_Frame_Init  robot_frame_init.o
    0x0801bb58   0x0801bb58   0x00000010   Code   RO          214    .text.SPI2_IRQHandler  stm32h7xx_it.o
    0x0801bb68   0x0801bb68   0x00000116   Code   RO         1789    .text.SPI_CloseTransfer  stm32h7xx_hal_spi.o
    0x0801bc7e   0x0801bc7e   0x00000002   PAD
    0x0801bc80   0x0801bc80   0x0000002c   Code   RO         1865    .text.SPI_DMAAbortOnError  stm32h7xx_hal_spi.o
    0x0801bcac   0x0801bcac   0x00000004   PAD
    0x0801bcb0   0x0801bcb0   0x00000040   Code   RO         1821    .text.SPI_DMAError  stm32h7xx_hal_spi.o
    0x0801bcf0   0x0801bcf0   0x00000016   Code   RO         1817    .text.SPI_DMAHalfTransmitCplt  stm32h7xx_hal_spi.o
    0x0801bd06   0x0801bd06   0x00000002   PAD
    0x0801bd08   0x0801bd08   0x00000016   Code   RO         1831    .text.SPI_DMAHalfTransmitReceiveCplt  stm32h7xx_hal_spi.o
    0x0801bd1e   0x0801bd1e   0x00000002   PAD
    0x0801bd20   0x0801bd20   0x00000042   Code   RO         1819    .text.SPI_DMATransmitCplt  stm32h7xx_hal_spi.o
    0x0801bd62   0x0801bd62   0x00000006   PAD
    0x0801bd68   0x0801bd68   0x00000042   Code   RO         1833    .text.SPI_DMATransmitReceiveCplt  stm32h7xx_hal_spi.o
    0x0801bdaa   0x0801bdaa   0x00000006   PAD
    0x0801bdb0   0x0801bdb0   0x0000002a   Code   RO         1779    .text.SPI_GetPacketSize  stm32h7xx_hal_spi.o
    0x0801bdda   0x0801bdda   0x00000006   PAD
    0x0801bde0   0x0801bde0   0x00000086   Code   RO         2898    .text.SPI_Register  bsp_spi.o
    0x0801be66   0x0801be66   0x00000002   PAD
    0x0801be68   0x0801be68   0x00000046   Code   RO         1809    .text.SPI_RxISR_16BIT  stm32h7xx_hal_spi.o
    0x0801beae   0x0801beae   0x00000002   PAD
    0x0801beb0   0x0801beb0   0x00000040   Code   RO         1807    .text.SPI_RxISR_32BIT  stm32h7xx_hal_spi.o
    0x0801bef0   0x0801bef0   0x00000042   Code   RO         1811    .text.SPI_RxISR_8BIT  stm32h7xx_hal_spi.o
    0x0801bf32   0x0801bf32   0x00000006   PAD
    0x0801bf38   0x0801bf38   0x00000044   Code   RO         2906    .text.SPI_Set_Mode  bsp_spi.o
    0x0801bf7c   0x0801bf7c   0x00000004   PAD
    0x0801bf80   0x0801bf80   0x0000007c   Code   RO         2900    .text.SPI_Transmit  bsp_spi.o
    0x0801bffc   0x0801bffc   0x00000004   PAD
    0x0801c000   0x0801c000   0x000000ac   Code   RO         2904    .text.SPI_Transmit_Receive  bsp_spi.o
    0x0801c0ac   0x0801c0ac   0x00000004   PAD
    0x0801c0b0   0x0801c0b0   0x00000046   Code   RO         1801    .text.SPI_TxISR_16BIT  stm32h7xx_hal_spi.o
    0x0801c0f6   0x0801c0f6   0x00000002   PAD
    0x0801c0f8   0x0801c0f8   0x0000003e   Code   RO         1799    .text.SPI_TxISR_32BIT  stm32h7xx_hal_spi.o
    0x0801c136   0x0801c136   0x00000002   PAD
    0x0801c138   0x0801c138   0x00000040   Code   RO         1803    .text.SPI_TxISR_8BIT  stm32h7xx_hal_spi.o
    0x0801c178   0x0801c178   0x00000068   Code   RO         1791    .text.SPI_WaitOnFlagUntilTimeout  stm32h7xx_hal_spi.o
    0x0801c1e0   0x0801c1e0   0x00000024   Code   RO         2744    .text.SVC_Handler   port.o
    0x0801c204   0x0801c204   0x00000004   PAD
    0x0801c208   0x0801c208   0x0000000e   Code   RO         2540    .text.SVC_Setup     cmsis_os2.o
    0x0801c216   0x0801c216   0x00000002   PAD
    0x0801c218   0x0801c218   0x00000002   Code   RO         3795    .text.Shoot_Console  shoot_task.o
    0x0801c21a   0x0801c21a   0x00000006   PAD
    0x0801c220   0x0801c220   0x00000002   Code   RO         3787    .text.Shoot_Handle_Exception  shoot_task.o
    0x0801c222   0x0801c222   0x00000006   PAD
    0x0801c228   0x0801c228   0x00000002   Code   RO         3791    .text.Shoot_Observer  shoot_task.o
    0x0801c22a   0x0801c22a   0x00000006   PAD
    0x0801c230   0x0801c230   0x00000002   Code   RO         3783    .text.Shoot_Publish  shoot_task.o
    0x0801c232   0x0801c232   0x00000006   PAD
    0x0801c238   0x0801c238   0x00000002   Code   RO         3793    .text.Shoot_Reference  shoot_task.o
    0x0801c23a   0x0801c23a   0x00000006   PAD
    0x0801c240   0x0801c240   0x00000002   Code   RO         3797    .text.Shoot_Send_Cmd  shoot_task.o
    0x0801c242   0x0801c242   0x00000006   PAD
    0x0801c248   0x0801c248   0x00000002   Code   RO         3789    .text.Shoot_Set_Mode  shoot_task.o
    0x0801c24a   0x0801c24a   0x00000006   PAD
    0x0801c250   0x0801c250   0x00000062   Code   RO         3781    .text.Shoot_Task    shoot_task.o
    0x0801c2b2   0x0801c2b2   0x00000006   PAD
    0x0801c2b8   0x0801c2b8   0x00000088   Code   RO         3779    .text.Shoot_Task_Init  shoot_task.o
    0x0801c340   0x0801c340   0x00000328   Code   RO         3946    .text.Slip_Detect   balance_chassis.o
    0x0801c668   0x0801c668   0x000000bc   Code   RO         3313    .text.Sqrt          user_lib.o
    0x0801c724   0x0801c724   0x00000004   PAD
    0x0801c728   0x0801c728   0x000001d8   Code   RO           37    .text.StartDefaultTask  freertos.o
    0x0801c900   0x0801c900   0x00000092   Code   RO         2987    .text.Subscriber_Register  message_center.o
    0x0801c992   0x0801c992   0x00000006   PAD
    0x0801c998   0x0801c998   0x0000005e   Code   RO         2966    .text.Supervisor_Register  defense_center.o
    0x0801c9f6   0x0801c9f6   0x00000002   PAD
    0x0801c9f8   0x0801c9f8   0x0000000e   Code   RO         2968    .text.Supervisor_Reload  defense_center.o
    0x0801ca06   0x0801ca06   0x00000002   PAD
    0x0801ca08   0x0801ca08   0x0000001e   Code   RO         2530    .text.SysTick_Handler  cmsis_os2.o
    0x0801ca26   0x0801ca26   0x00000002   PAD
    0x0801ca28   0x0801ca28   0x000000d0   Code   RO           13    .text.SystemClock_Config  main.o
    0x0801caf8   0x0801caf8   0x00000166   Code   RO         2090    .text.SystemInit    system_stm32h7xx.o
    0x0801cc5e   0x0801cc5e   0x00000002   PAD
    0x0801cc60   0x0801cc60   0x00000010   Code   RO          226    .text.TIM7_IRQHandler  stm32h7xx_it.o
    0x0801cc70   0x0801cc70   0x000001c4   Code   RO          271    .text.TIM_Base_SetConfig  stm32h7xx_hal_tim.o
    0x0801ce34   0x0801ce34   0x00000004   PAD
    0x0801ce38   0x0801ce38   0x00000036   Code   RO          305    .text.TIM_CCxChannelCmd  stm32h7xx_hal_tim.o
    0x0801ce6e   0x0801ce6e   0x00000002   PAD
    0x0801ce70   0x0801ce70   0x00000150   Code   RO          415    .text.TIM_OC1_SetConfig  stm32h7xx_hal_tim.o
    0x0801cfc0   0x0801cfc0   0x0000016c   Code   RO          417    .text.TIM_OC2_SetConfig  stm32h7xx_hal_tim.o
    0x0801d12c   0x0801d12c   0x00000004   PAD
    0x0801d130   0x0801d130   0x0000016a   Code   RO          419    .text.TIM_OC3_SetConfig  stm32h7xx_hal_tim.o
    0x0801d29a   0x0801d29a   0x00000006   PAD
    0x0801d2a0   0x0801d2a0   0x000000da   Code   RO          421    .text.TIM_OC4_SetConfig  stm32h7xx_hal_tim.o
    0x0801d37a   0x0801d37a   0x00000006   PAD
    0x0801d380   0x0801d380   0x000000d0   Code   RO          423    .text.TIM_OC5_SetConfig  stm32h7xx_hal_tim.o
    0x0801d450   0x0801d450   0x000000d2   Code   RO          425    .text.TIM_OC6_SetConfig  stm32h7xx_hal_tim.o
    0x0801d522   0x0801d522   0x00000006   PAD
    0x0801d528   0x0801d528   0x00000010   Code   RO          224    .text.UART5_IRQHandler  stm32h7xx_it.o
    0x0801d538   0x0801d538   0x00000010   Code   RO          230    .text.UART7_IRQHandler  stm32h7xx_it.o
    0x0801d548   0x0801d548   0x00000086   Code   RO         2065    .text.UARTEx_SetNbDataToProcess  stm32h7xx_hal_uart_ex.o
    0x0801d5ce   0x0801d5ce   0x00000002   PAD
    0x0801d5d0   0x0801d5d0   0x00000148   Code   RO         1901    .text.UART_AdvFeatureConfig  stm32h7xx_hal_uart.o
    0x0801d718   0x0801d718   0x00000146   Code   RO         1905    .text.UART_CheckIdleState  stm32h7xx_hal_uart.o
    0x0801d85e   0x0801d85e   0x00000002   PAD
    0x0801d860   0x0801d860   0x0000001e   Code   RO         1987    .text.UART_DMAAbortOnError  stm32h7xx_hal_uart.o
    0x0801d87e   0x0801d87e   0x00000002   PAD
    0x0801d880   0x0801d880   0x00000080   Code   RO         1943    .text.UART_DMAError  stm32h7xx_hal_uart.o
    0x0801d900   0x0801d900   0x000000f6   Code   RO         2033    .text.UART_DMAReceiveCplt  stm32h7xx_hal_uart.o
    0x0801d9f6   0x0801d9f6   0x00000002   PAD
    0x0801d9f8   0x0801d9f8   0x00000036   Code   RO         2035    .text.UART_DMARxHalfCplt  stm32h7xx_hal_uart.o
    0x0801da2e   0x0801da2e   0x00000002   PAD
    0x0801da30   0x0801da30   0x0000007a   Code   RO         1939    .text.UART_DMATransmitCplt  stm32h7xx_hal_uart.o
    0x0801daaa   0x0801daaa   0x00000006   PAD
    0x0801dab0   0x0801dab0   0x00000016   Code   RO         1941    .text.UART_DMATxHalfCplt  stm32h7xx_hal_uart.o
    0x0801dac6   0x0801dac6   0x00000002   PAD
    0x0801dac8   0x0801dac8   0x0000009e   Code   RO         1957    .text.UART_EndRxTransfer  stm32h7xx_hal_uart.o
    0x0801db66   0x0801db66   0x00000002   PAD
    0x0801db68   0x0801db68   0x00000044   Code   RO         1993    .text.UART_EndTransmit_IT  stm32h7xx_hal_uart.o
    0x0801dbac   0x0801dbac   0x00000004   PAD
    0x0801dbb0   0x0801dbb0   0x0000005c   Code   RO         1955    .text.UART_EndTxTransfer  stm32h7xx_hal_uart.o
    0x0801dc0c   0x0801dc0c   0x00000004   PAD
    0x0801dc10   0x0801dc10   0x00000a4e   Code   RO         1903    .text.UART_SetConfig  stm32h7xx_hal_uart.o
    0x0801e65e   0x0801e65e   0x00000002   PAD
    0x0801e660   0x0801e660   0x0000012e   Code   RO         1947    .text.UART_Start_Receive_DMA  stm32h7xx_hal_uart.o
    0x0801e78e   0x0801e78e   0x00000002   PAD
    0x0801e790   0x0801e790   0x00000098   Code   RO         1929    .text.UART_TxISR_16BIT  stm32h7xx_hal_uart.o
    0x0801e828   0x0801e828   0x000000ce   Code   RO         1925    .text.UART_TxISR_16BIT_FIFOEN  stm32h7xx_hal_uart.o
    0x0801e8f6   0x0801e8f6   0x00000002   PAD
    0x0801e8f8   0x0801e8f8   0x0000008e   Code   RO         1931    .text.UART_TxISR_8BIT  stm32h7xx_hal_uart.o
    0x0801e986   0x0801e986   0x00000002   PAD
    0x0801e988   0x0801e988   0x000000c4   Code   RO         1927    .text.UART_TxISR_8BIT_FIFOEN  stm32h7xx_hal_uart.o
    0x0801ea4c   0x0801ea4c   0x00000004   PAD
    0x0801ea50   0x0801ea50   0x0000010c   Code   RO         1919    .text.UART_WaitOnFlagUntilTimeout  stm32h7xx_hal_uart.o
    0x0801eb5c   0x0801eb5c   0x00000004   PAD
    0x0801eb60   0x0801eb60   0x00000010   Code   RO          232    .text.USART10_IRQHandler  stm32h7xx_it.o
    0x0801eb70   0x0801eb70   0x00000010   Code   RO          216    .text.USART1_IRQHandler  stm32h7xx_it.o
    0x0801eb80   0x0801eb80   0x00000010   Code   RO          218    .text.USART2_IRQHandler  stm32h7xx_it.o
    0x0801eb90   0x0801eb90   0x00000010   Code   RO          220    .text.USART3_IRQHandler  stm32h7xx_it.o
    0x0801eba0   0x0801eba0   0x000000ce   Code   RO         2877    .text.USART_Register  bsp_usart.o
    0x0801ec6e   0x0801ec6e   0x00000002   PAD
    0x0801ec70   0x0801ec70   0x0000006e   Code   RO         2879    .text.USART_Send    bsp_usart.o
    0x0801ecde   0x0801ecde   0x00000002   PAD
    0x0801ece0   0x0801ece0   0x000001e2   Code   RO         2875    .text.USART_Service_Init  bsp_usart.o
    0x0801eec2   0x0801eec2   0x00000006   PAD
    0x0801eec8   0x0801eec8   0x00000004   Code   RO          192    .text.UsageFault_Handler  stm32h7xx_it.o
    0x0801eecc   0x0801eecc   0x00000004   PAD
    0x0801eed0   0x0801eed0   0x000006a0   Code   RO         3537    .text.VMC_Calc_Base_Data  vmc.o
    0x0801f570   0x0801f570   0x00000226   Code   RO         3539    .text.VMC_Calc_T_Joint  vmc.o
    0x0801f796   0x0801f796   0x00000002   PAD
    0x0801f798   0x0801f798   0x000000b8   Code   RO         3541    .text.VMC_FN_Ground_Detection  vmc.o
    0x0801f850   0x0801f850   0x00000050   Code   RO         3535    .text.VMC_Init      vmc.o
    0x0801f8a0   0x0801f8a0   0x000000be   Code   RO         3886    .text.VOFA_Display_IMU  procotol.o
    0x0801f95e   0x0801f95e   0x00000002   PAD
    0x0801f960   0x0801f960   0x0000002c   Code   RO         3018    .text.VOFA_Register  vofa.o
    0x0801f98c   0x0801f98c   0x00000004   PAD
    0x0801f990   0x0801f990   0x00000050   Code   RO         3026    .text.VOFA_Send_Data  vofa.o
    0x0801f9e0   0x0801f9e0   0x0000002a   Code   RO         3020    .text.VOFA_Transmit  vofa.o
    0x0801fa0a   0x0801fa0a   0x00000006   PAD
    0x0801fa10   0x0801fa10   0x00000050   Code   RO         3294    .text.Value_Limit   pid.o
    0x0801fa60   0x0801fa60   0x00000044   Code   RO         3277    .text.WFLY_SBUS_Register  wfly_control.o
    0x0801faa4   0x0801faa4   0x00000004   PAD
    0x0801faa8   0x0801faa8   0x00000014   Code   RO         3279    .text.WFLY_SBUS_Rx_Callback  wfly_control.o
    0x0801fabc   0x0801fabc   0x00000004   PAD
    0x0801fac0   0x0801fac0   0x00000084   Code   RO         3006    .text.WS2812_Control  ws2812.o
    0x0801fb44   0x0801fb44   0x00000004   PAD
    0x0801fb48   0x0801fb48   0x0000004a   Code   RO         3002    .text.WS2812_Register  ws2812.o
    0x0801fb92   0x0801fb92   0x00000006   PAD
    0x0801fb98   0x0801fb98   0x0000002e   Code   RO         3345    .text.__ARM_isnan   user_lib.o
    0x0801fbc6   0x0801fbc6   0x00000002   PAD
    0x0801fbc8   0x0801fbc8   0x00000038   Code   RO          637    .text.__NVIC_DisableIRQ  stm32h7xx_hal_cortex.o
    0x0801fc00   0x0801fc00   0x00000030   Code   RO          633    .text.__NVIC_EnableIRQ  stm32h7xx_hal_cortex.o
    0x0801fc30   0x0801fc30   0x00000010   Code   RO          625    .text.__NVIC_GetPriorityGrouping  stm32h7xx_hal_cortex.o
    0x0801fc40   0x0801fc40   0x00000042   Code   RO          627    .text.__NVIC_SetPriority  stm32h7xx_hal_cortex.o
    0x0801fc82   0x0801fc82   0x00000006   PAD
    0x0801fc88   0x0801fc88   0x00000042   Code   RO         2694    .text.__NVIC_SetPriority  cmsis_os2.o
    0x0801fcca   0x0801fcca   0x00000006   PAD
    0x0801fcd0   0x0801fcd0   0x0000003c   Code   RO          621    .text.__NVIC_SetPriorityGrouping  stm32h7xx_hal_cortex.o
    0x0801fd0c   0x0801fd0c   0x00000090   Code   RO         4051    .text.arm_cos_f32   arm_cortexM7lfdp_math.lib(arm_cos_f32.o)
    0x0801fd9c   0x0801fd9c   0x000000be   Code   RO         4071    .text.arm_mat_add_f32  arm_cortexM7lfdp_math.lib(arm_mat_add_f32.o)
    0x0801fe5a   0x0801fe5a   0x00000008   Code   RO         4081    .text.arm_mat_init_f32  arm_cortexM7lfdp_math.lib(arm_mat_init_f32.o)
    0x0801fe62   0x0801fe62   0x00000002   PAD
    0x0801fe64   0x0801fe64   0x000002cc   Code   RO         4090    .text.arm_mat_inverse_f32  arm_cortexM7lfdp_math.lib(arm_mat_inverse_f32.o)
    0x08020130   0x08020130   0x00000130   Code   RO         4100    .text.arm_mat_mult_f32  arm_cortexM7lfdp_math.lib(arm_mat_mult_f32.o)
    0x08020260   0x08020260   0x000000be   Code   RO         4110    .text.arm_mat_sub_f32  arm_cortexM7lfdp_math.lib(arm_mat_sub_f32.o)
    0x0802031e   0x0802031e   0x00000002   PAD
    0x08020320   0x08020320   0x000000b4   Code   RO         4120    .text.arm_mat_trans_f32  arm_cortexM7lfdp_math.lib(arm_mat_trans_f32.o)
    0x080203d4   0x080203d4   0x0000008c   Code   RO         4061    .text.arm_sin_f32   arm_cortexM7lfdp_math.lib(arm_sin_f32.o)
    0x08020460   0x08020460   0x00000050   Code   RO         3321    .text.float_constrain  user_lib.o
    0x080204b0   0x080204b0   0x00000044   Code   RO         3319    .text.float_deadband  user_lib.o
    0x080204f4   0x080204f4   0x00000004   PAD
    0x080204f8   0x080204f8   0x00000058   Code   RO         3208    .text.float_to_uint  dm_motor.o
    0x08020550   0x08020550   0x00000056   Code   RO         3448    .text.invSqrt       quaternionekf.o
    0x080205a6   0x080205a6   0x00000002   PAD
    0x080205a8   0x080205a8   0x00000070   Code   RO           11    .text.main          main.o
    0x08020618   0x08020618   0x0000005e   Code   RO         3057    .text.next_char     buzzer.o
    0x08020676   0x08020676   0x00000002   PAD
    0x08020678   0x08020678   0x00000032   Code   RO         3063    .text.next_dots     buzzer.o
    0x080206aa   0x080206aa   0x00000006   PAD
    0x080206b0   0x080206b0   0x00000058   Code   RO         3059    .text.next_number   buzzer.o
    0x08020708   0x08020708   0x00000034   Code   RO         2598    .text.osDelay       cmsis_os2.o
    0x0802073c   0x0802073c   0x00000004   PAD
    0x08020740   0x08020740   0x00000058   Code   RO         2600    .text.osDelayUntil  cmsis_os2.o
    0x08020798   0x08020798   0x00000026   Code   RO         2548    .text.osKernelGetTickCount  cmsis_os2.o
    0x080207be   0x080207be   0x00000002   PAD
    0x080207c0   0x080207c0   0x00000046   Code   RO         2532    .text.osKernelInitialize  cmsis_os2.o
    0x08020806   0x08020806   0x00000002   PAD
    0x08020808   0x08020808   0x00000052   Code   RO         2538    .text.osKernelStart  cmsis_os2.o
    0x0802085a   0x0802085a   0x00000006   PAD
    0x08020860   0x08020860   0x000000a4   Code   RO         2590    .text.osThreadFlagsSet  cmsis_os2.o
    0x08020904   0x08020904   0x00000004   PAD
    0x08020908   0x08020908   0x0000015a   Code   RO         2562    .text.osThreadNew   cmsis_os2.o
    0x08020a62   0x08020a62   0x00000006   PAD
    0x08020a68   0x08020a68   0x00000040   Code   RO         2580    .text.osThreadResume  cmsis_os2.o
    0x08020aa8   0x08020aa8   0x00000040   Code   RO         2578    .text.osThreadSuspend  cmsis_os2.o
    0x08020ae8   0x08020ae8   0x000000d4   Code   RO         2324    .text.prvAddCurrentTaskToDelayedList  tasks.o
    0x08020bbc   0x08020bbc   0x00000004   PAD
    0x08020bc0   0x08020bc0   0x00000122   Code   RO         2310    .text.prvAddNewTaskToReadyList  tasks.o
    0x08020ce2   0x08020ce2   0x00000006   PAD
    0x08020ce8   0x08020ce8   0x000000a2   Code   RO         2461    .text.prvCheckForValidListAndQueue  timers.o
    0x08020d8a   0x08020d8a   0x00000006   PAD
    0x08020d90   0x08020d90   0x0000005a   Code   RO         2428    .text.prvCheckTasksWaitingTermination  tasks.o
    0x08020dea   0x08020dea   0x00000006   PAD
    0x08020df0   0x08020df0   0x00000042   Code   RO         2203    .text.prvCopyDataFromQueue  queue.o
    0x08020e32   0x08020e32   0x00000006   PAD
    0x08020e38   0x08020e38   0x000000cc   Code   RO         2191    .text.prvCopyDataToQueue  queue.o
    0x08020f04   0x08020f04   0x00000004   PAD
    0x08020f08   0x08020f08   0x0000005e   Code   RO         2316    .text.prvDeleteTCB  tasks.o
    0x08020f66   0x08020f66   0x00000002   PAD
    0x08020f68   0x08020f68   0x00000040   Code   RO         2499    .text.prvGetNextExpireTime  timers.o
    0x08020fa8   0x08020fa8   0x000000bc   Code   RO         2711    .text.prvHeapInit   heap_4.o
    0x08021064   0x08021064   0x00000004   PAD
    0x08021068   0x08021068   0x00000038   Code   RO         2350    .text.prvIdleTask   tasks.o
    0x080210a0   0x080210a0   0x00000048   Code   RO         2165    .text.prvInitialiseNewQueue  queue.o
    0x080210e8   0x080210e8   0x00000122   Code   RO         2308    .text.prvInitialiseNewTask  tasks.o
    0x0802120a   0x0802120a   0x00000006   PAD
    0x08021210   0x08021210   0x0000008e   Code   RO         2426    .text.prvInitialiseTaskLists  tasks.o
    0x0802129e   0x0802129e   0x00000002   PAD
    0x080212a0   0x080212a0   0x000000c6   Code   RO         2713    .text.prvInsertBlockIntoFreeList  heap_4.o
    0x08021366   0x08021366   0x00000002   PAD
    0x08021368   0x08021368   0x00000086   Code   RO         2511    .text.prvInsertTimerInActiveList  timers.o
    0x080213ee   0x080213ee   0x00000002   PAD
    0x080213f0   0x080213f0   0x00000028   Code   RO         2205    .text.prvIsQueueEmpty  queue.o
    0x08021418   0x08021418   0x0000002e   Code   RO         2193    .text.prvIsQueueFull  queue.o
    0x08021446   0x08021446   0x00000002   PAD
    0x08021448   0x08021448   0x00000028   Code   RO         2752    .text.prvPortStartFirstTask  port.o
    0x08021470   0x08021470   0x0000008e   Code   RO         2507    .text.prvProcessExpiredTimer  timers.o
    0x080214fe   0x080214fe   0x00000002   PAD
    0x08021500   0x08021500   0x00000192   Code   RO         2503    .text.prvProcessReceivedCommands  timers.o
    0x08021692   0x08021692   0x00000006   PAD
    0x08021698   0x08021698   0x0000009a   Code   RO         2501    .text.prvProcessTimerOrBlockTask  timers.o
    0x08021732   0x08021732   0x00000006   PAD
    0x08021738   0x08021738   0x00000046   Code   RO         2318    .text.prvResetNextTaskUnblockTime  tasks.o
    0x0802177e   0x0802177e   0x00000002   PAD
    0x08021780   0x08021780   0x00000044   Code   RO         2505    .text.prvSampleTimeNow  timers.o
    0x080217c4   0x080217c4   0x00000004   PAD
    0x080217c8   0x080217c8   0x000000d4   Code   RO         2509    .text.prvSwitchTimerLists  timers.o
    0x0802189c   0x0802189c   0x00000004   PAD
    0x080218a0   0x080218a0   0x00000030   Code   RO         2394    .text.prvTaskCheckFreeStackSpace  tasks.o
    0x080218d0   0x080218d0   0x0000004c   Code   RO         2742    .text.prvTaskExitError  port.o
    0x0802191c   0x0802191c   0x00000004   PAD
    0x08021920   0x08021920   0x0000006a   Code   RO         2344    .text.prvTaskIsTaskSuspended  tasks.o
    0x0802198a   0x0802198a   0x00000006   PAD
    0x08021990   0x08021990   0x0000001e   Code   RO         2463    .text.prvTimerTask  timers.o
    0x080219ae   0x080219ae   0x00000002   PAD
    0x080219b0   0x080219b0   0x000000ae   Code   RO         2195    .text.prvUnlockQueue  queue.o
    0x08021a5e   0x08021a5e   0x00000002   PAD
    0x08021a60   0x08021a60   0x000001ec   Code   RO         2709    .text.pvPortMalloc  heap_4.o
    0x08021c4c   0x08021c4c   0x00000004   PAD
    0x08021c50   0x08021c50   0x0000005e   Code   RO         2740    .text.pxPortInitialiseStack  port.o
    0x08021cae   0x08021cae   0x00000002   PAD
    0x08021cb0   0x08021cb0   0x00000526   Code   RO         3309    .text.ramp_calc     user_lib.o
    0x080221d6   0x080221d6   0x00000002   PAD
    0x080221d8   0x080221d8   0x0000005a   Code   RO         3307    .text.ramp_init     user_lib.o
    0x08022232   0x08022232   0x00000006   PAD
    0x08022238   0x08022238   0x000001b2   Code   RO         3055    .text.string_handle  buzzer.o
    0x080223ea   0x080223ea   0x00000006   PAD
    0x080223f0   0x080223f0   0x000000a6   Code   RO         3327    .text.trans_thresholds  user_lib.o
    0x08022496   0x08022496   0x00000002   PAD
    0x08022498   0x08022498   0x00000052   Code   RO         3210    .text.uint_to_float  dm_motor.o
    0x080224ea   0x080224ea   0x00000006   PAD
    0x080224f0   0x080224f0   0x00000048   Code   RO         2152    .text.uxListRemove  list.o
    0x08022538   0x08022538   0x00000038   Code   RO         2396    .text.uxTaskGetStackHighWaterMark  tasks.o
    0x08022570   0x08022570   0x0000002a   Code   RO         2690    .text.vApplicationGetIdleTaskMemory  cmsis_os2.o
    0x0802259a   0x0802259a   0x00000006   PAD
    0x080225a0   0x080225a0   0x0000002c   Code   RO         2692    .text.vApplicationGetTimerTaskMemory  cmsis_os2.o
    0x080225cc   0x080225cc   0x00000004   PAD
    0x080225d0   0x080225d0   0x0000002e   Code   RO         2144    .text.vListInitialise  list.o
    0x080225fe   0x080225fe   0x00000002   PAD
    0x08022600   0x08022600   0x0000000e   Code   RO         2146    .text.vListInitialiseItem  list.o
    0x0802260e   0x0802260e   0x00000002   PAD
    0x08022610   0x08022610   0x0000006a   Code   RO         2150    .text.vListInsert   list.o
    0x0802267a   0x0802267a   0x00000006   PAD
    0x08022680   0x08022680   0x0000003a   Code   RO         2148    .text.vListInsertEnd  list.o
    0x080226ba   0x080226ba   0x00000006   PAD
    0x080226c0   0x080226c0   0x00000014   Code   RO         2750    .text.vPortEnableVFP  port.o
    0x080226d4   0x080226d4   0x00000004   PAD
    0x080226d8   0x080226d8   0x00000056   Code   RO         2756    .text.vPortEnterCritical  port.o
    0x0802272e   0x0802272e   0x00000002   PAD
    0x08022730   0x08022730   0x0000004a   Code   RO         2758    .text.vPortExitCritical  port.o
    0x0802277a   0x0802277a   0x00000006   PAD
    0x08022780   0x08022780   0x000000ce   Code   RO         2715    .text.vPortFree     heap_4.o
    0x0802284e   0x0802284e   0x00000002   PAD
    0x08022850   0x08022850   0x00000044   Code   RO         2748    .text.vPortSetupTimerInterrupt  port.o
    0x08022894   0x08022894   0x00000004   PAD
    0x08022898   0x08022898   0x00000084   Code   RO         2764    .text.vPortValidateInterruptPriority  port.o
    0x0802291c   0x0802291c   0x00000004   PAD
    0x08022920   0x08022920   0x00000052   Code   RO         2235    .text.vQueueAddToRegistry  queue.o
    0x08022972   0x08022972   0x00000006   PAD
    0x08022978   0x08022978   0x00000064   Code   RO         2239    .text.vQueueWaitForMessageRestricted  queue.o
    0x080229dc   0x080229dc   0x00000004   PAD
    0x080229e0   0x080229e0   0x0000006e   Code   RO         2328    .text.vTaskDelay    tasks.o
    0x08022a4e   0x08022a4e   0x00000002   PAD
    0x08022a50   0x08022a50   0x00000114   Code   RO         2320    .text.vTaskDelayUntil  tasks.o
    0x08022b64   0x08022b64   0x00000004   PAD
    0x08022b68   0x08022b68   0x00000024   Code   RO         2382    .text.vTaskInternalSetTimeOutState  tasks.o
    0x08022b8c   0x08022b8c   0x00000004   PAD
    0x08022b90   0x08022b90   0x0000000e   Code   RO         2386    .text.vTaskMissedYield  tasks.o
    0x08022b9e   0x08022b9e   0x00000002   PAD
    0x08022ba0   0x08022ba0   0x00000042   Code   RO         2370    .text.vTaskPlaceOnEventList  tasks.o
    0x08022be2   0x08022be2   0x00000006   PAD
    0x08022be8   0x08022be8   0x00000052   Code   RO         2374    .text.vTaskPlaceOnEventListRestricted  tasks.o
    0x08022c3a   0x08022c3a   0x00000006   PAD
    0x08022c40   0x08022c40   0x000000d6   Code   RO         2342    .text.vTaskResume   tasks.o
    0x08022d16   0x08022d16   0x00000002   PAD
    0x08022d18   0x08022d18   0x000000e0   Code   RO         2348    .text.vTaskStartScheduler  tasks.o
    0x08022df8   0x08022df8   0x00000128   Code   RO         2338    .text.vTaskSuspend  tasks.o
    0x08022f20   0x08022f20   0x00000010   Code   RO         2322    .text.vTaskSuspendAll  tasks.o
    0x08022f30   0x08022f30   0x000000c6   Code   RO         2340    .text.vTaskSwitchContext  tasks.o
    0x08022ff6   0x08022ff6   0x00000002   PAD
    0x08022ff8   0x08022ff8   0x00000348   Code   RO         3275    .text.wfly_to_rc    wfly_control.o
    0x08023340   0x08023340   0x00000156   Code   RO         2746    .text.xPortStartScheduler  port.o
    0x08023496   0x08023496   0x00000002   PAD
    0x08023498   0x08023498   0x0000003c   Code   RO         2762    .text.xPortSysTickHandler  port.o
    0x080234d4   0x080234d4   0x00000004   PAD
    0x080234d8   0x080234d8   0x0000010e   Code   RO         2163    .text.xQueueGenericCreateStatic  queue.o
    0x080235e6   0x080235e6   0x00000002   PAD
    0x080235e8   0x080235e8   0x000000ba   Code   RO         2161    .text.xQueueGenericReset  queue.o
    0x080236a2   0x080236a2   0x00000006   PAD
    0x080236a8   0x080236a8   0x0000022c   Code   RO         2181    .text.xQueueGenericSend  queue.o
    0x080238d4   0x080238d4   0x00000004   PAD
    0x080238d8   0x080238d8   0x0000014c   Code   RO         2197    .text.xQueueGenericSendFromISR  queue.o
    0x08023a24   0x08023a24   0x00000004   PAD
    0x08023a28   0x08023a28   0x000001dc   Code   RO         2201    .text.xQueueReceive  queue.o
    0x08023c04   0x08023c04   0x00000004   PAD
    0x08023c08   0x08023c08   0x000000cc   Code   RO         2384    .text.xTaskCheckForTimeOut  tasks.o
    0x08023cd4   0x08023cd4   0x00000004   PAD
    0x08023cd8   0x08023cd8   0x0000009e   Code   RO         2312    .text.xTaskCreate   tasks.o
    0x08023d76   0x08023d76   0x00000002   PAD
    0x08023d78   0x08023d78   0x000000ce   Code   RO         2306    .text.xTaskCreateStatic  tasks.o
    0x08023e46   0x08023e46   0x00000002   PAD
    0x08023e48   0x08023e48   0x00000178   Code   RO         2416    .text.xTaskGenericNotify  tasks.o
    0x08023fc0   0x08023fc0   0x000001c4   Code   RO         2418    .text.xTaskGenericNotifyFromISR  tasks.o
    0x08024184   0x08024184   0x00000004   PAD
    0x08024188   0x08024188   0x00000038   Code   RO         2400    .text.xTaskGetSchedulerState  tasks.o
    0x080241c0   0x080241c0   0x00000014   Code   RO         2356    .text.xTaskGetTickCount  tasks.o
    0x080241d4   0x080241d4   0x00000004   PAD
    0x080241d8   0x080241d8   0x0000001e   Code   RO         2358    .text.xTaskGetTickCountFromISR  tasks.o
    0x080241f6   0x080241f6   0x00000002   PAD
    0x080241f8   0x080241f8   0x000001c4   Code   RO         2354    .text.xTaskIncrementTick  tasks.o
    0x080243bc   0x080243bc   0x00000004   PAD
    0x080243c0   0x080243c0   0x000000ec   Code   RO         2404    .text.xTaskPriorityDisinherit  tasks.o
    0x080244ac   0x080244ac   0x00000004   PAD
    0x080244b0   0x080244b0   0x000000ce   Code   RO         2376    .text.xTaskRemoveFromEventList  tasks.o
    0x0802457e   0x0802457e   0x00000002   PAD
    0x08024580   0x08024580   0x00000186   Code   RO         2326    .text.xTaskResumeAll  tasks.o
    0x08024706   0x08024706   0x00000002   PAD
    0x08024708   0x08024708   0x00000094   Code   RO         2459    .text.xTimerCreateTimerTask  timers.o
    0x0802479c   0x0802479c   0x00000004   PAD
    0x080247a0   0x080247a0   0x000000b0   Code   RO         2471    .text.xTimerGenericCommand  timers.o
    0x08024850   0x08024850   0x000000d4   Code   RO         3918    .text.xvEstimateKF_Init  balance_chassis.o
    0x08024924   0x08024924   0x00000004   PAD
    0x08024928   0x08024928   0x00000064   Code   RO         3948    .text.xvEstimateKF_Update  balance_chassis.o
    0x0802498c   0x0802498c   0x00000030   Code   RO         4691    i.__ARM_fpclassify  m_wv.l(fpclassify.o)
    0x080249bc   0x080249bc   0x00000026   Code   RO         4595    i.__ARM_fpclassifyf  m_wv.l(fpclassifyf.o)
    0x080249e2   0x080249e2   0x00000002   PAD
    0x080249e4   0x080249e4   0x00000118   Code   RO         4314    i.__hardfp_acosf    m_wv.l(acosf.o)
    0x08024afc   0x08024afc   0x0000012c   Code   RO         4320    i.__hardfp_asinf    m_wv.l(asinf.o)
    0x08024c28   0x08024c28   0x000001d4   Code   RO         4565    i.__hardfp_atan     m_wv.l(atan.o)
    0x08024dfc   0x08024dfc   0x00000004   PAD
    0x08024e00   0x08024e00   0x000001c8   Code   RO         4326    i.__hardfp_atan2    m_wv.l(atan2.o)
    0x08024fc8   0x08024fc8   0x000002ac   Code   RO         4332    i.__hardfp_atan2f   m_wv.l(atan2f.o)
    0x08025274   0x08025274   0x00000150   Code   RO         4338    i.__hardfp_cosf     m_wv.l(cosf.o)
    0x080253c4   0x080253c4   0x00000190   Code   RO         4350    i.__hardfp_sinf     m_wv.l(sinf.o)
    0x08025554   0x08025554   0x00000066   Code   RO         4356    i.__hardfp_sqrt     m_wv.l(sqrt.o)
    0x080255ba   0x080255ba   0x0000003a   Code   RO         4362    i.__hardfp_sqrtf    m_wv.l(sqrtf.o)
    0x080255f4   0x080255f4   0x00000070   Code   RO         4693    i.__kernel_poly     m_wv.l(poly.o)
    0x08025664   0x08025664   0x00000006   Code   RO         4576    i.__mathlib_dbl_infnan  m_wv.l(dunder.o)
    0x0802566a   0x0802566a   0x00000006   Code   RO         4577    i.__mathlib_dbl_infnan2  m_wv.l(dunder.o)
    0x08025670   0x08025670   0x00000018   Code   RO         4581    i.__mathlib_dbl_underflow  m_wv.l(dunder.o)
    0x08025688   0x08025688   0x00000006   Code   RO         4598    i.__mathlib_flt_infnan  m_wv.l(funder.o)
    0x0802568e   0x0802568e   0x00000006   Code   RO         4599    i.__mathlib_flt_infnan2  m_wv.l(funder.o)
    0x08025694   0x08025694   0x00000010   Code   RO         4600    i.__mathlib_flt_invalid  m_wv.l(funder.o)
    0x080256a4   0x080256a4   0x00000010   Code   RO         4603    i.__mathlib_flt_underflow  m_wv.l(funder.o)
    0x080256b4   0x080256b4   0x00000154   Code   RO         4617    i.__mathlib_rredf2  m_wv.l(rredf.o)
    0x08025808   0x08025808   0x00000010   Code   RO         4567    i.atan              m_wv.l(atan.o)
    0x08025818   0x08025818   0x00000018   Code   RO         4591    i.fabs              m_wv.l(fabs.o)
    0x08025830   0x08025830   0x0000003e   Code   RO         4364    i.sqrtf             m_wv.l(sqrtf.o)
    0x0802586e   0x0802586e   0x00000002   PAD
    0x08025870   0x08025870   0x0000002c   Code   RO         4503    locale$$code        c_w.l(lc_ctype_c.o)
    0x0802589c   0x0802589c   0x0000001a   Code   RO         4689    x$fpl$fpinit        fz_wv.l(fpinit.o)
    0x080258b6   0x080258b6   0x00000000   Code   RO         4564    x$fpl$usenofp       fz_wv.l(usenofp.o)
    0x080258b6   0x080258b6   0x00000002   PAD
    0x080258b8   0x080258b8   0x00000098   Data   RO         4568    .constdata          m_wv.l(atan.o)
    0x08025950   0x08025950   0x00000008   Data   RO         4611    .constdata          m_wv.l(qnan.o)
    0x08025958   0x08025958   0x00000020   Data   RO         4618    .constdata          m_wv.l(rredf.o)
    0x08025978   0x08025978   0x00000018   Data   RO         3082    .rodata..L__const.Buzzer_Register.buzzer_config  buzzer.o
    0x08025990   0x08025990   0x00000024   Data   RO         3827    .rodata..L__const.Buzzer_Task_Init.attr  daemon_task.o
    0x080259b4   0x080259b4   0x00000024   Data   RO         3729    .rodata..L__const.Chassis_Task_Init.attr  chassis_task.o
    0x080259d8   0x080259d8   0x00000024   Data   RO         3765    .rodata..L__const.Gimbal_Task_Init.attr  gimbal_task.o
    0x080259fc   0x080259fc   0x0000004c   Data   RO         1720    .rodata..L__const.HAL_FDCAN_Init.CvtEltSize  stm32h7xx_hal_fdcan.o
    0x08025a48   0x08025a48   0x00000024   Data   RO         3873    .rodata..L__const.INS_Task_Init.attr  ins_task.o
    0x08025a6c   0x08025a6c   0x00000024   Data   RO         3902    .rodata..L__const.Procotol_Task_Init.attr  procotol_task.o
    0x08025a90   0x08025a90   0x00000024   Data   RO         3800    .rodata..L__const.Shoot_Task_Init.attr  shoot_task.o
    0x08025ab4   0x08025ab4   0x0000001f   Data   RO         3075    .rodata.Call_Airsupport_sound  buzzer.o
    0x08025ad3   0x08025ad3   0x00000010   Data   RO         2098    .rodata.D1CorePrescTable  system_stm32h7xx.o
    0x08025ae3   0x08025ae3   0x00000010   Data   RO         1721    .rodata.DLCtoBytes  stm32h7xx_hal_fdcan.o
    0x08025af3   0x08025af3   0x00000008   Data   RO          983    .rodata.DMA_CalcBaseAndBitshift.flagBitshiftOffset  stm32h7xx_hal_dma.o
    0x08025afb   0x08025afb   0x0000001f   Data   RO         3077    .rodata.Err_sound   buzzer.o
    0x08025b1a   0x08025b1a   0x0000003c   Data   RO         3080    .rodata.Heartbeat_sound  buzzer.o
    0x08025b56   0x08025b56   0x00000002   PAD
    0x08025b58   0x08025b58   0x00000090   Data   RO         3450    .rodata.IMU_QuaternionEKF_F  quaternionekf.o
    0x08025be8   0x08025be8   0x0000000d   Data   RO         3076    .rodata.Init_sound  buzzer.o
    0x08025bf5   0x08025bf5   0x00000012   Data   RO         3071    .rodata.No_RC_sound  buzzer.o
    0x08025c07   0x08025c07   0x00000001   PAD
    0x08025c08   0x08025c08   0x000000da   Data   RO         3069    .rodata.Note_Freq   buzzer.o
    0x08025ce2   0x08025ce2   0x00000016   Data   RO         3078    .rodata.Ready_sound  buzzer.o
    0x08025cf8   0x08025cf8   0x00000011   Data   RO         3070    .rodata.StartUP_sound  buzzer.o
    0x08025d09   0x08025d09   0x0000007d   Data   RO         3081    .rodata.Super_Mario_sound  buzzer.o
    0x08025d86   0x08025d86   0x00000008   Data   RO         2082    .rodata.UARTEx_SetNbDataToProcess.denominator  stm32h7xx_hal_uart_ex.o
    0x08025d8e   0x08025d8e   0x00000008   Data   RO         2081    .rodata.UARTEx_SetNbDataToProcess.numerator  stm32h7xx_hal_uart_ex.o
    0x08025d96   0x08025d96   0x00000018   Data   RO         2037    .rodata.UARTPrescTable  stm32h7xx_hal_uart.o
    0x08025dae   0x08025dae   0x00000024   Data   RO         3079    .rodata.Warming_sound  buzzer.o
    0x08025dd2   0x08025dd2   0x0000002b   Data   RO         3072    .rodata.Yes_RC_sound  buzzer.o
    0x08025dfd   0x08025dfd   0x00000007   Data   RO         3086    .rodata._note_tab   buzzer.o
    0x08025e04   0x08025e04   0x00000024   Data   RO           40    .rodata.defaultTask_attributes  freertos.o
    0x08025e28   0x08025e28   0x0000000c   Data   RO         3855    .rodata.gravity     ins.o
    0x08025e34   0x08025e34   0x00000804   Data   RO         4216    .rodata.sinTable_f32  arm_cortexM7lfdp_math.lib(arm_common_tables.o)
    0x08026638   0x08026638   0x0000000c   Data   RO           39    .rodata.str1.1      freertos.o
    0x08026644   0x08026644   0x00000005   Data   RO         2444    .rodata.str1.1      tasks.o
    0x08026649   0x08026649   0x0000000d   Data   RO         2514    .rodata.str1.1      timers.o
    0x08026656   0x08026656   0x00000037   Data   RO         3728    .rodata.str1.1      chassis_task.o
    0x0802668d   0x0802668d   0x00000034   Data   RO         3764    .rodata.str1.1      gimbal_task.o
    0x080266c1   0x080266c1   0x00000031   Data   RO         3799    .rodata.str1.1      shoot_task.o
    0x080266f2   0x080266f2   0x00000040   Data   RO         3822    .rodata.str1.1      daemon_task.o
    0x08026732   0x08026732   0x0000002b   Data   RO         3872    .rodata.str1.1      ins_task.o
    0x0802675d   0x0802675d   0x0000003a   Data   RO         3901    .rodata.str1.1      procotol_task.o
    0x08026797   0x08026797   0x00000001   PAD
    0x08026798   0x08026798   0x0000000c   Data   RO         3849    .rodata.xb          ins.o
    0x080267a4   0x080267a4   0x0000000c   Data   RO         3850    .rodata.yb          ins.o
    0x080267b0   0x080267b0   0x0000000c   Data   RO         3851    .rodata.zb          ins.o
    0x080267bc   0x080267bc   0x00000020   Data   RO         4825    Region$$Table       anon$$obj.o
    0x080267dc   0x080267dc   0x00000110   Data   RO         4502    locale$$data        c_w.l(lc_ctype_c.o)


    Execution Region RW_IRAM1 (Exec base: 0x20000000, Load base: 0x080268ec, Size: 0x00000000, Max: 0x00020000, ABSOLUTE)

    **** No section assigned to this execution region ****


    Execution Region RW_IRAM2 (Exec base: 0x24000000, Load base: 0x080268f0, Size: 0x0000be70, Max: 0x00050000, ABSOLUTE, COMPRESSED[0x00000308])

    Exec Addr    Load Addr    Size         Type   Attr      Idx    E Section Name        Object

    0x24000000   COMPRESSED   0x00000008   Data   RW         3148    .data.BMI088_Accel_Read.tx  bmi088.o
    0x24000008   COMPRESSED   0x00000002   Data   RW         3145    .data.BMI088_Calibrate_IMU.acc_cali_time  bmi088.o
    0x2400000a   COMPRESSED   0x00000002   Data   RW         3144    .data.BMI088_Calibrate_IMU.cail_time  bmi088.o
    0x2400000c   COMPRESSED   0x00000008   Data   RW         3150    .data.BMI088_Gyro_Read.tx  bmi088.o
    0x24000014   COMPRESSED   0x00000050   Data   RW         3966    .data.DJI_left_motor_init  balance_chassis.o
    0x24000064   COMPRESSED   0x00000050   Data   RW         3965    .data.DJI_right_motor_init  balance_chassis.o
    0x240000b4   COMPRESSED   0x00000050   Data   RW         3964    .data.DM_left_back_motor_init  balance_chassis.o
    0x24000104   COMPRESSED   0x00000050   Data   RW         3963    .data.DM_left_front_motor_init  balance_chassis.o
    0x24000154   COMPRESSED   0x00000050   Data   RW         3962    .data.DM_right_back_motor_init  balance_chassis.o
    0x240001a4   COMPRESSED   0x00000050   Data   RW         3961    .data.DM_right_front_motor_init  balance_chassis.o
    0x240001f4   COMPRESSED   0x00000090   Data   RW         3451    .data.IMU_QuaternionEKF_P  quaternionekf.o
    0x24000284   COMPRESSED   0x000000c0   Data   RW         3960    .data.Poly_Coefficient_Leg  balance_chassis.o
    0x24000344   COMPRESSED   0x000000c0   Data   RW         3959    .data.Poly_Coefficient_STOOL  balance_chassis.o
    0x24000404   COMPRESSED   0x00000004   Data   RW         4015    .data.R_1           balance_chassis.o
    0x24000408   COMPRESSED   0x00000004   Data   RW         2096    .data.SystemCoreClock  system_stm32h7xx.o
    0x2400040c   COMPRESSED   0x00000004   Data   RW         2097    .data.SystemD2Clock  system_stm32h7xx.o
    0x24000410   COMPRESSED   0x00000004   Data   RW         3033    .data.VOFA_Send_Data.buf_end  vofa.o
    0x24000414   COMPRESSED   0x00000012   Data   RW         3157    .data.bmi088_accel_init_table  bmi088.o
    0x24000426   COMPRESSED   0x00000012   Data   RW         3158    .data.bmi088_gyro_init_table  bmi088.o
    0x24000438   COMPRESSED   0x000000c0   Data   RW         3130    .data.bmi088_init_h7  bmi088.o
    0x240004f8   COMPRESSED   0x00000004   Data   RW         3551    .data.body_high     vmc.o
    0x240004fc   COMPRESSED   0x00000004   Data   RW         4009    .data.down_torque_jump  balance_chassis.o
    0x24000500   COMPRESSED   0x00000015   Data   RW         3973    .data.jump_ramp_init  balance_chassis.o
    0x24000515   COMPRESSED   0x00000015   Data   RW         3967    .data.left_leg_v_target_ramp_init  balance_chassis.o
    0x2400052a   COMPRESSED   0x00000015   Data   RW         3969    .data.left_wheel_torque_ramp_init  balance_chassis.o
    0x2400053f   COMPRESSED   0x00000015   Data   RW         3971    .data.leg_length_ramp_init  balance_chassis.o
    0x24000554   COMPRESSED   0x00000030   Data   RW         2993    .data.message_center  message_center.o
    0x24000584   COMPRESSED   0x00000001   Data   RW         3553    .data.off_threshold  vmc.o
    0x24000585   COMPRESSED   0x00000001   Data   RW         4019    .data.off_time_jump  balance_chassis.o
    0x24000586   COMPRESSED   0x00000001   Data   RW         4018    .data.off_time_normal  balance_chassis.o
    0x24000587   COMPRESSED   0x00000015   Data   RW         3968    .data.right_leg_v_target_ramp_init  balance_chassis.o
    0x2400059c   COMPRESSED   0x00000015   Data   RW         3970    .data.right_wheel_torque_ramp_init  balance_chassis.o
    0x240005b1   COMPRESSED   0x00000015   Data   RW         3972    .data.roll_f0_ramp_init  balance_chassis.o
    0x240005c6   COMPRESSED   0x00000002   PAD
    0x240005c8   COMPRESSED   0x000004b0   Data   RW         3195    .data.sender_assignment  dji_motor.o
    0x24000a78   COMPRESSED   0x00000001   Data   RW         3552    .data.touch_threshold  vmc.o
    0x24000a79   COMPRESSED   0x00000001   Data   RW         4020    .data.touch_time_jump  balance_chassis.o
    0x24000a7a   COMPRESSED   0x00000001   Data   RW         4017    .data.touch_time_normal  balance_chassis.o
    0x24000a7b   COMPRESSED   0x00000015   Data   RW         3974    .data.turn_ramp_init  balance_chassis.o
    0x24000a90   COMPRESSED   0x00000004   Data   RW         4008    .data.up_torque_jump  balance_chassis.o
    0x24000a94   COMPRESSED   0x00000001   Data   RW         1298    .data.uwTickFreq    stm32h7xx_hal.o
    0x24000a95   COMPRESSED   0x00000003   PAD
    0x24000a98   COMPRESSED   0x00000004   Data   RW         1297    .data.uwTickPrio    stm32h7xx_hal.o
    0x24000a9c   COMPRESSED   0x00000004   Data   RW         2768    .data.uxCriticalNesting  port.o
    0x24000aa0   COMPRESSED   0x00000010   Data   RW         4023    .data.vaEstimateKF_F  balance_chassis.o
    0x24000ab0   COMPRESSED   0x00000010   Data   RW         4024    .data.vaEstimateKF_P  balance_chassis.o
    0x24000ac0   COMPRESSED   0x00000010   Data   RW         4025    .data.vaEstimateKF_Q  balance_chassis.o
    0x24000ad0   COMPRESSED   0x00000010   Data   RW         4026    .data.vaEstimateKF_R  balance_chassis.o
    0x24000ae0        -       0x00000060   Zero   RW         4628    .bss                c_w.l(libspace.o)
    0x24000b40        -       0x00000004   Zero   RW         3155    .bss.BMI088_Accel_INT_Callback.bmi088  bmi088.o
    0x24000b44        -       0x00000008   Zero   RW         3149    .bss.BMI088_Accel_Read.rx  bmi088.o
    0x24000b4c        -       0x00000004   Zero   RW         3152    .bss.BMI088_Accel_SPI_Finish_Callback.bmi088  bmi088.o
    0x24000b50        -       0x00000002   Zero   RW         3153    .bss.BMI088_Accel_SPI_Finish_Callback.callback_time  bmi088.o
    0x24000b52        -       0x00000002   Zero   RW         3146    .bss.BMI088_Calibrate_IMU.cali_time_count  bmi088.o
    0x24000b54        -       0x00000004   Zero   RW         3142    .bss.BMI088_Calibrate_IMU.g_norm_diff  bmi088.o
    0x24000b58        -       0x0000000c   Zero   RW         3141    .bss.BMI088_Calibrate_IMU.gyro_diff  bmi088.o
    0x24000b64        -       0x00000004   Zero   RW         3143    .bss.BMI088_Calibrate_IMU.start_time  bmi088.o
    0x24000b68        -       0x00000004   Zero   RW         3156    .bss.BMI088_Gyro_INT_Callback.bmi088  bmi088.o
    0x24000b6c        -       0x00000008   Zero   RW         3151    .bss.BMI088_Gyro_Read.rx  bmi088.o
    0x24000b74        -       0x00000004   Zero   RW         3154    .bss.BMI088_Gyro_SPI_Finish_Callback.bmi088  bmi088.o
    0x24000b78        -       0x00000006   Zero   RW         3138    .bss.BMI088_Read_All.buf  bmi088.o
    0x24000b7e        -       0x00000001   Zero   RW         3147    .bss.BMI088_Register.error_count  bmi088.o
    0x24000b7f        -       0x00000001   Zero   RW         3136    .bss.BMI088_Temp_Control.first_temperate  bmi088.o
    0x24000b80        -       0x00000004   Zero   RW         3137    .bss.BMI088_Temp_Control.target_temp  bmi088.o
    0x24000b84        -       0x00000001   Zero   RW         3135    .bss.BMI088_Temp_Control.temp_constant_time  bmi088.o
    0x24000b85   COMPRESSED   0x00000003   PAD
    0x24000b88        -       0x00000004   Zero   RW         3828    .bss.Buzzer_Handle  daemon_task.o
    0x24000b8c        -       0x00000040   Zero   RW         2867    .bss.CANFIFOxCallback.can_rx_buff  bsp_can.o
    0x24000bcc        -       0x00000028   Zero   RW         2866    .bss.CANFIFOxCallback.rx_config_header  bsp_can.o
    0x24000bf4        -       0x00000001   Zero   RW         2863    .bss.CAN_Add_Filter.can1_filter_cnt  bsp_can.o
    0x24000bf5        -       0x00000001   Zero   RW         2860    .bss.CAN_Add_Filter.can1_filter_idx  bsp_can.o
    0x24000bf6        -       0x00000001   Zero   RW         2864    .bss.CAN_Add_Filter.can2_filter_cnt  bsp_can.o
    0x24000bf7        -       0x00000001   Zero   RW         2861    .bss.CAN_Add_Filter.can2_filter_idx  bsp_can.o
    0x24000bf8        -       0x00000001   Zero   RW         2865    .bss.CAN_Add_Filter.can3_filter_cnt  bsp_can.o
    0x24000bf9        -       0x00000001   Zero   RW         2862    .bss.CAN_Add_Filter.can3_filter_idx  bsp_can.o
    0x24000bfa   COMPRESSED   0x00000002   PAD
    0x24000bfc        -       0x00000004   Zero   RW         2857    .bss.CAN_Transmit.busy_count  bsp_can.o
    0x24000c00        -       0x00000004   Zero   RW         2794    .bss.CPU_frequency  bsp_dwt.o
    0x24000c04        -       0x00000004   Zero   RW         2795    .bss.CPU_frequency_ms  bsp_dwt.o
    0x24000c08        -       0x00000004   Zero   RW         2796    .bss.CPU_frequency_us  bsp_dwt.o
    0x24000c0c   COMPRESSED   0x00000004   PAD
    0x24000c10        -       0x00000008   Zero   RW         2799    .bss.CYCCNT64       bsp_dwt.o
    0x24000c18        -       0x00000004   Zero   RW         2801    .bss.CYCCNT_last    bsp_dwt.o
    0x24000c1c        -       0x00000004   Zero   RW         2797    .bss.CYCCNT_round_count  bsp_dwt.o
    0x24000c20        -       0x00000002   Zero   RW         4007    .bss.Chassis_Handle_Exception.exception_cnt  balance_chassis.o
    0x24000c22   COMPRESSED   0x00000002   PAD
    0x24000c24        -       0x00000004   Zero   RW         4039    .bss.Chassis_Leg_Update.dt  balance_chassis.o
    0x24000c28        -       0x00000004   Zero   RW         4038    .bss.Chassis_Leg_Update.leg_dwt  balance_chassis.o
    0x24000c2c        -       0x00000018   Zero   RW         4040    .bss.Chassis_Normal_Control.chassis_err  balance_chassis.o
    0x24000c44        -       0x00000002   Zero   RW         4043    .bss.Chassis_Normal_Control.jump_end_cnt  balance_chassis.o
    0x24000c46   COMPRESSED   0x00000002   PAD
    0x24000c48        -       0x00000004   Zero   RW         4006    .bss.Chassis_Observer.chassis_ob_cnt  balance_chassis.o
    0x24000c4c        -       0x00000004   Zero   RW         4012    .bss.Chassis_Send_Cmd.chassis_send_cnt  balance_chassis.o
    0x24000c50        -       0x00000004   Zero   RW         4032    .bss.Chassis_Speed_Update.aver_v  balance_chassis.o
    0x24000c54        -       0x00000004   Zero   RW         4036    .bss.Chassis_Speed_Update.dt  balance_chassis.o
    0x24000c58        -       0x00000008   Zero   RW         4033    .bss.Chassis_Speed_Update.fusion_v_data  balance_chassis.o
    0x24000c60        -       0x00000004   Zero   RW         4035    .bss.Chassis_Speed_Update.observe_dwt  balance_chassis.o
    0x24000c64        -       0x00000004   Zero   RW         4031    .bss.Chassis_Speed_Update.v_left_b_axis  balance_chassis.o
    0x24000c68        -       0x00000004   Zero   RW         4030    .bss.Chassis_Speed_Update.v_right_b_axis  balance_chassis.o
    0x24000c6c        -       0x00000004   Zero   RW         4029    .bss.Chassis_Speed_Update.wheel_z_e_left  balance_chassis.o
    0x24000c70        -       0x00000004   Zero   RW         4028    .bss.Chassis_Speed_Update.wheel_z_e_right  balance_chassis.o
    0x24000c74        -       0x00000004   Zero   RW         3981    .bss.DJI_left_motor_instance  balance_chassis.o
    0x24000c78        -       0x00000004   Zero   RW         3980    .bss.DJI_right_motor_instance  balance_chassis.o
    0x24000c7c        -       0x00000004   Zero   RW         3979    .bss.DM_left_back_motor_instance  balance_chassis.o
    0x24000c80        -       0x00000004   Zero   RW         3978    .bss.DM_left_front_motor_instance  balance_chassis.o
    0x24000c84        -       0x00000004   Zero   RW         3977    .bss.DM_right_back_motor_instance  balance_chassis.o
    0x24000c88        -       0x00000004   Zero   RW         3976    .bss.DM_right_front_motor_instance  balance_chassis.o
    0x24000c8c        -       0x00000001   Zero   RW         2800    .bss.DWT_CNT_Update.bit_locker  bsp_dwt.o
    0x24000c8d   COMPRESSED   0x00000003   PAD
    0x24000c90        -       0x00000008   Zero   RW         2802    .bss.DWT_System_Time_Update.CNT_TEMP1  bsp_dwt.o
    0x24000c98        -       0x00000008   Zero   RW         2803    .bss.DWT_System_Time_Update.CNT_TEMP2  bsp_dwt.o
    0x24000ca0        -       0x00000008   Zero   RW         2804    .bss.DWT_System_Time_Update.CNT_TEMP3  bsp_dwt.o
    0x24000ca8        -       0x00000004   Zero   RW         3632    .bss.F_Integral_Limit.temp_iout  digital_pid.o
    0x24000cac        -       0x00000004   Zero   RW         3631    .bss.F_Integral_Limit.temp_output  digital_pid.o
    0x24000cb0        -       0x00000004   Zero   RW           72    .bss.HAL_RCC_FDCAN_CLK_ENABLED  fdcan.o
    0x24000cb4        -       0x00000004   Zero   RW         3459    .bss.IMU_QuaternionEKF_F_Linearization_P_Fading.q0  quaternionekf.o
    0x24000cb8        -       0x00000004   Zero   RW         3460    .bss.IMU_QuaternionEKF_F_Linearization_P_Fading.q1  quaternionekf.o
    0x24000cbc        -       0x00000004   Zero   RW         3461    .bss.IMU_QuaternionEKF_F_Linearization_P_Fading.q2  quaternionekf.o
    0x24000cc0        -       0x00000004   Zero   RW         3462    .bss.IMU_QuaternionEKF_F_Linearization_P_Fading.q3  quaternionekf.o
    0x24000cc4        -       0x00000004   Zero   RW         3463    .bss.IMU_QuaternionEKF_F_Linearization_P_Fading.qInvNorm  quaternionekf.o
    0x24000cc8        -       0x00000048   Zero   RW         3458    .bss.IMU_QuaternionEKF_H  quaternionekf.o
    0x24000d10        -       0x00000048   Zero   RW         3457    .bss.IMU_QuaternionEKF_K  quaternionekf.o
    0x24000d58        -       0x00000004   Zero   RW         3464    .bss.IMU_QuaternionEKF_SetH.doubleq0  quaternionekf.o
    0x24000d5c        -       0x00000004   Zero   RW         3465    .bss.IMU_QuaternionEKF_SetH.doubleq1  quaternionekf.o
    0x24000d60        -       0x00000004   Zero   RW         3466    .bss.IMU_QuaternionEKF_SetH.doubleq2  quaternionekf.o
    0x24000d64        -       0x00000004   Zero   RW         3467    .bss.IMU_QuaternionEKF_SetH.doubleq3  quaternionekf.o
    0x24000d68        -       0x00000004   Zero   RW         3456    .bss.IMU_QuaternionEKF_Update.accelInvNorm  quaternionekf.o
    0x24000d6c        -       0x00000004   Zero   RW         3453    .bss.IMU_QuaternionEKF_Update.halfgxdt  quaternionekf.o
    0x24000d70        -       0x00000004   Zero   RW         3454    .bss.IMU_QuaternionEKF_Update.halfgydt  quaternionekf.o
    0x24000d74        -       0x00000004   Zero   RW         3455    .bss.IMU_QuaternionEKF_Update.halfgzdt  quaternionekf.o
    0x24000d78        -       0x00000004   Zero   RW         3468    .bss.IMU_QuaternionEKF_xhatUpdate.q0  quaternionekf.o
    0x24000d7c        -       0x00000004   Zero   RW         3469    .bss.IMU_QuaternionEKF_xhatUpdate.q1  quaternionekf.o
    0x24000d80        -       0x00000004   Zero   RW         3470    .bss.IMU_QuaternionEKF_xhatUpdate.q2  quaternionekf.o
    0x24000d84        -       0x00000004   Zero   RW         3471    .bss.IMU_QuaternionEKF_xhatUpdate.q3  quaternionekf.o
    0x24000d88        -       0x00000091   Zero   RW         3854    .bss.INS            ins.o
    0x24000e19   COMPRESSED   0x00000003   PAD
    0x24000e1c        -       0x00000004   Zero   RW         3878    .bss.INS_Task.INS_dwt_count  ins_task.o
    0x24000e20        -       0x00000004   Zero   RW         3875    .bss.INS_publisher  ins_task.o
    0x24000e24        -       0x00000004   Zero   RW         3876    .bss.INS_subscriber  ins_task.o
    0x24000e28        -       0x00000004   Zero   RW         3877    .bss.INS_task_diff  ins_task.o
    0x24000e2c        -       0x00000004   Zero   RW         3874    .bss.INS_task_handel  ins_task.o
    0x24000e30        -       0x00000004   Zero   RW         2696    .bss.KernelState    cmsis_os2.o
    0x24000e34        -       0x00000030   Zero   RW         4041    .bss.LQR_K_L        balance_chassis.o
    0x24000e64        -       0x00000030   Zero   RW         4042    .bss.LQR_K_R        balance_chassis.o
    0x24000e94   COMPRESSED   0x00000004   PAD
    0x24000e98        -       0x000001e8   Zero   RW         3452    .bss.QEKF_INS       quaternionekf.o
    0x24001080        -       0x00000050   Zero   RW         4037    .bss.Slip_Detect.v_r_delta_wheel  balance_chassis.o
    0x240010d0        -       0x00000001   Zero   RW           43    .bss.StartDefaultTask.music_lock  freertos.o
    0x240010d1        -       0x00000018   Zero   RW         3008    .bss.WS2812_Control.txbuf  ws2812.o
    0x240010e9   COMPRESSED   0x00000003   PAD
    0x240010ec        -       0x00000054   Zero   RW         3139    .bss.acc_kf         bmi088.o
    0x24001140        -       0x0000000c   Zero   RW         3858    .bss.accel_ins      ins.o
    0x2400114c        -       0x000000b0   Zero   RW         3982    .bss.balance_chassis  balance_chassis.o
    0x240011fc        -       0x00000004   Zero   RW           42    .bss.beat           freertos.o
    0x24001200        -       0x00000004   Zero   RW         3131    .bss.bmi088_h7      bmi088.o
    0x24001204        -       0x00000004   Zero   RW         3083    .bss.buzzer         buzzer.o
    0x24001208        -       0x00000001   Zero   RW         3084    .bss.buzzer_one_note_flag  buzzer.o
    0x24001209   COMPRESSED   0x00000003   PAD
    0x2400120c        -       0x00000004   Zero   RW         3085    .bss.buzzer_one_note_time  buzzer.o
    0x24001210        -       0x00000060   Zero   RW         2856    .bss.can_instances  bsp_can.o
    0x24001270        -       0x00000018   Zero   RW         3955    .bss.chassis_err_left_test  balance_chassis.o
    0x24001288        -       0x00000018   Zero   RW         3956    .bss.chassis_err_right_test  balance_chassis.o
    0x240012a0        -       0x00000004   Zero   RW         3733    .bss.chassis_high_water  chassis_task.o
    0x240012a4        -       0x00000154   Zero   RW         3984    .bss.chassis_left_leg  balance_chassis.o
    0x240013f8        -       0x00000004   Zero   RW         3731    .bss.chassis_publisher  chassis_task.o
    0x240013fc        -       0x00000154   Zero   RW         3983    .bss.chassis_right_leg  balance_chassis.o
    0x24001550        -       0x00000004   Zero   RW         3732    .bss.chassis_subscriber  chassis_task.o
    0x24001554        -       0x00000004   Zero   RW         3734    .bss.chassis_task_diff  chassis_task.o
    0x24001558        -       0x00000002   Zero   RW         3028    .bss.cnt            vofa.o
    0x2400155a   COMPRESSED   0x00000002   PAD
    0x2400155c        -       0x00000038   Zero   RW         4004    .bss.dd_w_kf        balance_chassis.o
    0x24001594        -       0x00000004   Zero   RW           41    .bss.defaultTaskHandle  freertos.o
    0x24001598        -       0x00000030   Zero   RW         3193    .bss.dji_motor_instances  dji_motor.o
    0x240015c8        -       0x00000010   Zero   RW         3245    .bss.dm_motor_instances  dm_motor.o
    0x240015d8        -       0x00000004   Zero   RW         3769    .bss.gimbal_high_water  gimbal_task.o
    0x240015dc        -       0x00000004   Zero   RW         3767    .bss.gimbal_publisher  gimbal_task.o
    0x240015e0        -       0x00000004   Zero   RW         3768    .bss.gimbal_subscriber  gimbal_task.o
    0x240015e4        -       0x00000004   Zero   RW         3770    .bss.gimbal_task_diff  gimbal_task.o
    0x240015e8        -       0x00000004   Zero   RW         3766    .bss.gimbal_task_handel  gimbal_task.o
    0x240015ec        -       0x00000020   Zero   RW         2935    .bss.gpio_instances  bsp_gpio.o
    0x2400160c        -       0x0000000c   Zero   RW         3857    .bss.gyro_ins       ins.o
    0x24001618        -       0x00000054   Zero   RW         3140    .bss.gyro_kf        bmi088.o
    0x2400166c        -       0x00000078   Zero   RW          118    .bss.hdma_spi2_rx   spi.o
    0x240016e4        -       0x00000078   Zero   RW          119    .bss.hdma_spi2_tx   spi.o
    0x2400175c        -       0x00000078   Zero   RW          174    .bss.hdma_uart5_rx  usart.o
    0x240017d4        -       0x00000078   Zero   RW          175    .bss.hdma_uart7_rx  usart.o
    0x2400184c        -       0x00000078   Zero   RW          176    .bss.hdma_uart7_tx  usart.o
    0x240018c4        -       0x000000a0   Zero   RW           69    .bss.hfdcan1        fdcan.o
    0x24001964        -       0x000000a0   Zero   RW           70    .bss.hfdcan2        fdcan.o
    0x24001a04        -       0x000000a0   Zero   RW           71    .bss.hfdcan3        fdcan.o
    0x24001aa4        -       0x00000054   Zero   RW           86    .bss.hi2c2          i2c.o
    0x24001af8        -       0x00000014   Zero   RW          100    .bss.hrng           rng.o
    0x24001b0c        -       0x00000088   Zero   RW          116    .bss.hspi2          spi.o
    0x24001b94        -       0x00000088   Zero   RW          117    .bss.hspi6          spi.o
    0x24001c1c        -       0x0000004c   Zero   RW          141    .bss.htim1          tim.o
    0x24001c68        -       0x0000004c   Zero   RW          144    .bss.htim12         tim.o
    0x24001cb4        -       0x0000004c   Zero   RW          142    .bss.htim2          tim.o
    0x24001d00        -       0x0000004c   Zero   RW          143    .bss.htim3          tim.o
    0x24001d4c        -       0x0000004c   Zero   RW          259    .bss.htim7          stm32h7xx_hal_timebase_tim.o
    0x24001d98        -       0x00000094   Zero   RW          170    .bss.huart1         usart.o
    0x24001e2c        -       0x00000094   Zero   RW          173    .bss.huart10        usart.o
    0x24001ec0        -       0x00000094   Zero   RW          171    .bss.huart2         usart.o
    0x24001f54        -       0x00000094   Zero   RW          172    .bss.huart3         usart.o
    0x24001fe8        -       0x00000094   Zero   RW          168    .bss.huart5         usart.o
    0x2400207c        -       0x00000094   Zero   RW          169    .bss.huart7         usart.o
    0x24002110        -       0x00000001   Zero   RW         2828    .bss.idx            bsp_pwm.o
    0x24002111        -       0x00000001   Zero   RW         2855    .bss.idx            bsp_can.o
    0x24002112        -       0x00000001   Zero   RW         2889    .bss.idx            bsp_usart.o
    0x24002113        -       0x00000001   Zero   RW         2913    .bss.idx            bsp_spi.o
    0x24002114        -       0x00000001   Zero   RW         2934    .bss.idx            bsp_gpio.o
    0x24002115        -       0x00000001   Zero   RW         2973    .bss.idx            defense_center.o
    0x24002116        -       0x00000001   Zero   RW         3194    .bss.idx            dji_motor.o
    0x24002117        -       0x00000001   Zero   RW         3244    .bss.idx            dm_motor.o
    0x24002118        -       0x0000001c   Zero   RW         3852    .bss.imu_data       ins.o
    0x24002134        -       0x00000004   Zero   RW         3856    .bss.ins_time       ins.o
    0x24002138        -       0x00000004   Zero   RW         4000    .bss.jump_ramp      balance_chassis.o
    0x2400213c        -       0x000001a8   Zero   RW         4002    .bss.left_leg_F_N_nlms  balance_chassis.o
    0x240022e4        -       0x00000004   Zero   RW         3994    .bss.left_leg_v_target_ramp  balance_chassis.o
    0x240022e8        -       0x00000004   Zero   RW         3996    .bss.left_wheel_torque_ramp  balance_chassis.o
    0x240022ec        -       0x00000038   Zero   RW         4005    .bss.leg_FN         balance_chassis.o
    0x24002324        -       0x00000088   Zero   RW         3987    .bss.leg_Tp_pid     balance_chassis.o
    0x240023ac        -       0x00000088   Zero   RW         3991    .bss.leg_l_length_position_pid  balance_chassis.o
    0x24002434        -       0x00000088   Zero   RW         3993    .bss.leg_l_length_speed_pid  balance_chassis.o
    0x240024bc        -       0x00000088   Zero   RW         3989    .bss.leg_length_pid  balance_chassis.o
    0x24002544        -       0x00000004   Zero   RW         3998    .bss.leg_length_ramp  balance_chassis.o
    0x24002548        -       0x00000088   Zero   RW         3990    .bss.leg_r_length_position_pid  balance_chassis.o
    0x240025d0        -       0x00000088   Zero   RW         3992    .bss.leg_r_length_speed_pid  balance_chassis.o
    0x24002658        -       0x00000088   Zero   RW         3986    .bss.leg_roll_position_pid  balance_chassis.o
    0x240026e0        -       0x00000088   Zero   RW         3988    .bss.leg_turn_pid   balance_chassis.o
    0x24002768        -       0x00000004   Zero   RW         3904    .bss.procotol_publisher  procotol_task.o
    0x2400276c        -       0x00000004   Zero   RW         3905    .bss.procotol_subscriber  procotol_task.o
    0x24002770        -       0x00000004   Zero   RW         3906    .bss.procotol_task_diff  procotol_task.o
    0x24002774        -       0x00000004   Zero   RW         3903    .bss.procotol_task_handel  procotol_task.o
    0x24002778        -       0x000000a0   Zero   RW         2522    .bss.prvCheckForValidListAndQueue.ucStaticTimerQueueStorage  timers.o
    0x24002818        -       0x00000050   Zero   RW         2521    .bss.prvCheckForValidListAndQueue.xStaticTimerQueue  timers.o
    0x24002868        -       0x00000004   Zero   RW         2518    .bss.prvSampleTimeNow.xLastTime  timers.o
    0x2400286c        -       0x00000040   Zero   RW         2829    .bss.pwm_instances  bsp_pwm.o
    0x240028ac        -       0x00000004   Zero   RW         2430    .bss.pxCurrentTCB   tasks.o
    0x240028b0        -       0x00000004   Zero   RW         2516    .bss.pxCurrentTimerList  timers.o
    0x240028b4        -       0x00000004   Zero   RW         2438    .bss.pxDelayedTaskList  tasks.o
    0x240028b8        -       0x00000004   Zero   RW         2725    .bss.pxEnd          heap_4.o
    0x240028bc        -       0x00000004   Zero   RW         2439    .bss.pxOverflowDelayedTaskList  tasks.o
    0x240028c0        -       0x00000004   Zero   RW         2517    .bss.pxOverflowTimerList  timers.o
    0x240028c4        -       0x00000460   Zero   RW         2441    .bss.pxReadyTasksLists  tasks.o
    0x24002d24        -       0x00000004   Zero   RW         3699    .bss.rc_data        robot_frame_init.o
    0x24002d28        -       0x000001a8   Zero   RW         4003    .bss.right_leg_F_N_nlms  balance_chassis.o
    0x24002ed0        -       0x00000004   Zero   RW         3995    .bss.right_leg_v_target_ramp  balance_chassis.o
    0x24002ed4        -       0x00000004   Zero   RW         3997    .bss.right_wheel_torque_ramp  balance_chassis.o
    0x24002ed8        -       0x00000004   Zero   RW         3730    .bss.robot_cmd_task_handel  chassis_task.o
    0x24002edc        -       0x00000004   Zero   RW         3999    .bss.roll_f0_ramp   balance_chassis.o
    0x24002ee0        -       0x00000080   Zero   RW         3034    .bss.send_buf       vofa.o
    0x24002f60        -       0x0000000f   Zero   RW         3196    .bss.sender_enable_flag  dji_motor.o
    0x24002f6f   COMPRESSED   0x00000001   PAD
    0x24002f70        -       0x00000004   Zero   RW         3804    .bss.shoot_high_water  shoot_task.o
    0x24002f74        -       0x00000004   Zero   RW         3802    .bss.shoot_publisher  shoot_task.o
    0x24002f78        -       0x00000004   Zero   RW         3803    .bss.shoot_subscriber  shoot_task.o
    0x24002f7c        -       0x00000004   Zero   RW         3805    .bss.shoot_task_diff  shoot_task.o
    0x24002f80        -       0x00000004   Zero   RW         3801    .bss.shoot_task_handel  shoot_task.o
    0x24002f84        -       0x00000002   Zero   RW         3498    .bss.sizeof_double  kalman_filter.o
    0x24002f86        -       0x00000002   Zero   RW         3497    .bss.sizeof_float   kalman_filter.o
    0x24002f88        -       0x00000008   Zero   RW         2914    .bss.spi_instances  bsp_spi.o
    0x24002f90        -       0x00000004   Zero   RW         3859    .bss.stop_time      ins.o
    0x24002f94        -       0x00000100   Zero   RW         2972    .bss.supervisor_instances  defense_center.o
    0x24003094        -       0x00000008   Zero   RW         2798    .bss.system_time    bsp_dwt.o
    0x2400309c        -       0x00000004   Zero   RW         4001    .bss.turn_ramp      balance_chassis.o
    0x240030a0        -       0x00003c00   Zero   RW         2732    .bss.ucHeap         heap_4.o
    0x24006ca0        -       0x00000001   Zero   RW         2766    .bss.ucMaxSysCallPriority  port.o
    0x24006ca1   COMPRESSED   0x00000003   PAD
    0x24006ca4        -       0x00000004   Zero   RW         2767    .bss.ulMaxPRIGROUPValue  port.o
    0x24006ca8        -       0x0000001c   Zero   RW         2890    .bss.usart_instances  bsp_usart.o
    0x24006cc4        -       0x00000004   Zero   RW         1299    .bss.uwTick         stm32h7xx_hal.o
    0x24006cc8        -       0x00000004   Zero   RW         2434    .bss.uxCurrentNumberOfTasks  tasks.o
    0x24006ccc        -       0x00000004   Zero   RW         2433    .bss.uxDeletedTasksWaitingCleanUp  tasks.o
    0x24006cd0        -       0x00000004   Zero   RW         2436    .bss.uxSchedulerSuspended  tasks.o
    0x24006cd4        -       0x00000004   Zero   RW         2431    .bss.uxTaskNumber   tasks.o
    0x24006cd8        -       0x00000004   Zero   RW         2442    .bss.uxTopReadyPriority  tasks.o
    0x24006cdc        -       0x00000200   Zero   RW         2699    .bss.vApplicationGetIdleTaskMemory.Idle_Stack  cmsis_os2.o
    0x24006edc        -       0x0000005c   Zero   RW         2698    .bss.vApplicationGetIdleTaskMemory.Idle_TCB  cmsis_os2.o
    0x24006f38        -       0x00000400   Zero   RW         2701    .bss.vApplicationGetTimerTaskMemory.Timer_Stack  cmsis_os2.o
    0x24007338        -       0x0000005c   Zero   RW         2700    .bss.vApplicationGetTimerTaskMemory.Timer_TCB  cmsis_os2.o
    0x24007394        -       0x00000140   Zero   RW         3985    .bss.vaEstimateKF   balance_chassis.o
    0x240074d4        -       0x00000050   Zero   RW         3029    .bss.vofa_data_view  vofa.o
    0x24007524        -       0x00000004   Zero   RW         3030    .bss.vofa_usart_instance  vofa.o
    0x24007528        -       0x00000004   Zero   RW         3975    .bss.watch_test     balance_chassis.o
    0x2400752c        -       0x0000001c   Zero   RW         3282    .bss.wfly_instance  wfly_control.o
    0x24007548        -       0x00000004   Zero   RW         3281    .bss.wfly_usart_instance  wfly_control.o
    0x2400754c        -       0x00000014   Zero   RW         3009    .bss.ws2812_config  ws2812.o
    0x24007560        -       0x00000004   Zero   RW         3010    .bss.ws2812_instance  ws2812.o
    0x24007564        -       0x00000014   Zero   RW         2519    .bss.xActiveTimerList1  timers.o
    0x24007578        -       0x00000014   Zero   RW         2520    .bss.xActiveTimerList2  timers.o
    0x2400758c        -       0x00000004   Zero   RW         2726    .bss.xBlockAllocatedBit  heap_4.o
    0x24007590        -       0x00000014   Zero   RW         2450    .bss.xDelayedTaskList1  tasks.o
    0x240075a4        -       0x00000014   Zero   RW         2451    .bss.xDelayedTaskList2  tasks.o
    0x240075b8        -       0x00000004   Zero   RW         2727    .bss.xFreeBytesRemaining  heap_4.o
    0x240075bc        -       0x00000004   Zero   RW         2445    .bss.xIdleTaskHandle  tasks.o
    0x240075c0        -       0x00000004   Zero   RW         2729    .bss.xMinimumEverFreeBytesRemaining  heap_4.o
    0x240075c4        -       0x00000004   Zero   RW         2446    .bss.xNextTaskUnblockTime  tasks.o
    0x240075c8        -       0x00000004   Zero   RW         2449    .bss.xNumOfOverflows  tasks.o
    0x240075cc        -       0x00000004   Zero   RW         2730    .bss.xNumberOfSuccessfulAllocations  heap_4.o
    0x240075d0        -       0x00000004   Zero   RW         2731    .bss.xNumberOfSuccessfulFrees  heap_4.o
    0x240075d4        -       0x00000004   Zero   RW         2448    .bss.xPendedTicks   tasks.o
    0x240075d8        -       0x00000014   Zero   RW         2443    .bss.xPendingReadyList  tasks.o
    0x240075ec        -       0x00000040   Zero   RW         2241    .bss.xQueueRegistry  queue.o
    0x2400762c        -       0x00000004   Zero   RW         2435    .bss.xSchedulerRunning  tasks.o
    0x24007630        -       0x00000008   Zero   RW         2728    .bss.xStart         heap_4.o
    0x24007638        -       0x00000014   Zero   RW         2440    .bss.xSuspendedTaskList  tasks.o
    0x2400764c        -       0x00000014   Zero   RW         2432    .bss.xTasksWaitingTermination  tasks.o
    0x24007660        -       0x00000004   Zero   RW         2437    .bss.xTickCount     tasks.o
    0x24007664        -       0x00000004   Zero   RW         2513    .bss.xTimerQueue    timers.o
    0x24007668        -       0x00000004   Zero   RW         2515    .bss.xTimerTaskHandle  timers.o
    0x2400766c        -       0x00000004   Zero   RW         2447    .bss.xYieldPending  tasks.o
    0x24007670        -       0x00001600   Zero   RW            2    HEAP                startup_stm32h723xx.o
    0x24008c70        -       0x00003200   Zero   RW            1    STACK               startup_stm32h723xx.o

